Component: ARM Compiler 5.06 update 1 (build 61) Tool: armlink [4d35a8]

==============================================================================

Section Cross References

    hsmtemplatemain.o(i.main) refers to _printf_percent.o(.ARM.Collect$$_printf_percent$$00000000) for _printf_percent
    hsmtemplatemain.o(i.main) refers to _printf_s.o(.ARM.Collect$$_printf_percent$$00000014) for _printf_s
    hsmtemplatemain.o(i.main) refers to _printf_str.o(.text) for _printf_str
    hsmtemplatemain.o(i.main) refers to sysctl.o(i.SysCtlClockSet) for SysCtlClockSet
    hsmtemplatemain.o(i.main) refers to termio.o(i.TERMIO_Init) for TERMIO_Init
    hsmtemplatemain.o(i.main) refers to puts.o(.text) for puts
    hsmtemplatemain.o(i.main) refers to mastersm.o(i.HardwareInit) for HardwareInit
    hsmtemplatemain.o(i.main) refers to noretval__2printf.o(.text) for __2printf
    hsmtemplatemain.o(i.main) refers to es_framework.o(i.ES_Initialize) for ES_Initialize
    hsmtemplatemain.o(i.main) refers to es_framework.o(i.ES_Run) for ES_Run
    eventcheckers.o(i.Check4Keystroke) refers to termio.o(i.kbhit) for kbhit
    eventcheckers.o(i.Check4Keystroke) refers to getc.o(.text) for getc
    eventcheckers.o(i.Check4Keystroke) refers to mapkeys.o(i.PostMapKeys) for PostMapKeys
    eventcheckers.o(i.Check4Keystroke) refers to retarget.o(.data) for __stdin
    admulti.o(i.ADC_MultiInit) refers to admulti.o(.data) for .data
    admulti.o(i.ADC_MultiInit) refers to admulti.o(.constdata) for .constdata
    admulti.o(i.ADC_MultiRead) refers to admulti.o(.data) for .data
    citysensorhw.o(i.CityIntHandler) refers to mastersm.o(i.PostMasterSM) for PostMasterSM
    citysensorhw.o(i.CityIntHandler) refers to citysensorhw.o(.data) for .data
    citysensorhw.o(i.CityTOIntHandler) refers to citysensorhw.o(.data) for .data
    citysensorhw.o(i.ClearFindCityCounter) refers to citysensorhw.o(.data) for .data
    citysensorhw.o(i.DisableCitySensorInts) refers to citysensorhw.o(.data) for .data
    citysensorhw.o(i.GetActualCityPeriodUS) refers to citysensorhw.o(.data) for .data
    citysensorhw.o(i.GetCityPeriodUS) refers to citysensorhw.o(.data) for .data
    citysensorhw.o(i.InitCitySensorHW) refers to citysensorhw.o(.data) for .data
    enablepa25_pb23_pd7_pf0.o(i.PortFunctionInit) refers to sysctl.o(i.SysCtlPeripheralEnable) for SysCtlPeripheralEnable
    enablepa25_pb23_pd7_pf0.o(i.PortFunctionInit) refers to gpio.o(i.GPIOPinTypeGPIOInput) for GPIOPinTypeGPIOInput
    eventprinter.o(i.InitEventPrinter) refers to eventprinter.o(.data) for .data
    eventprinter.o(i.PostEventPrinter) refers to es_framework.o(i.ES_PostToService) for ES_PostToService
    eventprinter.o(i.PostEventPrinter) refers to eventprinter.o(.data) for .data
    eventprinter.o(i.RunEventPrinter) refers to _printf_pad.o(.text) for _printf_pre_padding
    eventprinter.o(i.RunEventPrinter) refers to _printf_percent.o(.ARM.Collect$$_printf_percent$$00000000) for _printf_percent
    eventprinter.o(i.RunEventPrinter) refers to _printf_x.o(.ARM.Collect$$_printf_percent$$0000000C) for _printf_x
    eventprinter.o(i.RunEventPrinter) refers to _printf_hex_int.o(.text) for _printf_longlong_hex
    eventprinter.o(i.RunEventPrinter) refers to _printf_d.o(.ARM.Collect$$_printf_percent$$00000009) for _printf_d
    eventprinter.o(i.RunEventPrinter) refers to _printf_dec.o(.text) for _printf_int_dec
    eventprinter.o(i.RunEventPrinter) refers to noretval__2printf.o(.text) for __2printf
    irsensorhw.o(i.GetIRFreq) refers to irsensorhw.o(.data) for .data
    irsensorhw.o(i.GetIRPeriod) refers to irsensorhw.o(.data) for .data
    irsensorhw.o(i.IRIntHandler) refers to mastersm.o(i.PostMasterSM) for PostMasterSM
    irsensorhw.o(i.IRIntHandler) refers to irsensorhw.o(.data) for .data
    irsensorhw.o(i.IRTOIntHandler) refers to irsensorhw.o(.data) for .data
    irsensorhw.o(i.InitIRSensorHW) refers to irsensorhw.o(.data) for .data
    irsensorhw.o(i.SetTargetBasedOnMyTeam) refers to noretval__2printf.o(.text) for __2printf
    irsensorhw.o(i.SetTargetBasedOnMyTeam) refers to irsensorhw.o(.data) for .data
    linesensorshw.o(i.Check4CenterOnBlackLine) refers to mastersm.o(i.PostMasterSM) for PostMasterSM
    linesensorshw.o(i.Check4CenterOnBlackLine) refers to linesensorshw.o(.data) for .data
    linesensorshw.o(i.Check4FrontOnBlackLine) refers to mastersm.o(i.PostMasterSM) for PostMasterSM
    linesensorshw.o(i.Check4FrontOnBlackLine) refers to linesensorshw.o(.data) for .data
    linesensorshw.o(i.Check4LineAligned) refers to mastersm.o(i.PostMasterSM) for PostMasterSM
    linesensorshw.o(i.Check4LineAligned) refers to linesensorshw.o(.data) for .data
    linesensorshw.o(i.ClearLineSensorReadings) refers to linesensorshw.o(.data) for .data
    linesensorshw.o(i.ClearOffLineCounter) refers to linesensorshw.o(.data) for .data
    linesensorshw.o(i.GetLineReading) refers to linesensorshw.o(.data) for .data
    linesensorshw.o(i.InitLineSensorsHW) refers to admulti.o(i.ADC_MultiInit) for ADC_MultiInit
    linesensorshw.o(i.InitLineSensorsHW) refers to linesensorshw.o(.data) for .data
    linesensorshw.o(i.UpdateAllLineReadings) refers to admulti.o(i.ADC_MultiRead) for ADC_MultiRead
    linesensorshw.o(i.UpdateAllLineReadings) refers to linesensorshw.o(.bss) for .bss
    linesensorshw.o(i.UpdateAllLineReadings) refers to linesensorshw.o(.data) for .data
    mastersm.o(i.HardwareInit) refers to enablepa25_pb23_pd7_pf0.o(i.PortFunctionInit) for PortFunctionInit
    mastersm.o(i.HardwareInit) refers to linesensorshw.o(i.InitLineSensorsHW) for InitLineSensorsHW
    mastersm.o(i.HardwareInit) refers to citysensorhw.o(i.InitCitySensorHW) for InitCitySensorHW
    mastersm.o(i.HardwareInit) refers to irsensorhw.o(i.InitIRSensorHW) for InitIRSensorHW
    mastersm.o(i.HardwareInit) refers to teamcolorswitchhw.o(i.InitTeamColorSwitchHW) for InitTeamColorSwitchHW
    mastersm.o(i.HardwareInit) refers to ledshw.o(i.InitLEDsHW) for InitLEDsHW
    mastersm.o(i.HardwareInit) refers to ssihw.o(i.InitSSIHW) for InitSSIHW
    mastersm.o(i.HardwareInit) refers to switcheshw.o(i.InitSwitchesHW) for InitSwitchesHW
    mastersm.o(i.HardwareInit) refers to cammotorhw.o(i.InitCAMMotorHW) for InitCAMMotorHW
    mastersm.o(i.InitMasterSM) refers to mastersm.o(i.StartMasterSM) for StartMasterSM
    mastersm.o(i.InitMasterSM) refers to mastersm.o(.data) for .data
    mastersm.o(i.PostMasterSM) refers to es_framework.o(i.ES_PostToService) for ES_PostToService
    mastersm.o(i.PostMasterSM) refers to mastersm.o(.data) for .data
    mastersm.o(i.RunMasterSM) refers to paccommsm.o(i.RunPACCommSM) for RunPACCommSM
    mastersm.o(i.RunMasterSM) refers to botsm_1.o(i.RunBotSM) for RunBotSM
    mastersm.o(i.RunMasterSM) refers to gametimersm.o(i.RunGameTimerSM) for RunGameTimerSM
    mastersm.o(i.RunMasterSM) refers to paccommsm.o(i.StartPACCommSM) for StartPACCommSM
    mastersm.o(i.RunMasterSM) refers to botsm_1.o(i.StartBotSM) for StartBotSM
    mastersm.o(i.RunMasterSM) refers to gametimersm.o(i.StartGameTimerSM) for StartGameTimerSM
    mastersm.o(i.RunMasterSM) refers to mastersm.o(.data) for .data
    mastersm.o(i.StartMasterSM) refers to mastersm.o(i.RunMasterSM) for RunMasterSM
    mastersm.o(i.StartMasterSM) refers to mastersm.o(.data) for .data
    ssihw.o(i.InitSSIHW) refers to noretval__2printf.o(.text) for __2printf
    ssihw.o(i.InitSSIHW) refers to ssihw.o(.data) for .data
    ssihw.o(i.ReadSSI) refers to ssihw.o(.data) for .data
    ssihw.o(i.SSIHWEOTIntHandler) refers to mastersm.o(i.PostMasterSM) for PostMasterSM
    botsm_1.o(i.DuringBotIdle) refers to ledshw.o(i.SetLEDOff) for SetLEDOff
    botsm_1.o(i.DuringBotIdle) refers to citysensorhw.o(i.DisableCitySensorInts) for DisableCitySensorInts
    botsm_1.o(i.DuringBotIdle) refers to mastersm.o(i.PostMasterSM) for PostMasterSM
    botsm_1.o(i.DuringBotIdle) refers to teamcolorswitchhw.o(i.ReadTeamColor) for ReadTeamColor
    botsm_1.o(i.DuringBotIdle) refers to ledshw.o(i.SetLEDOn) for SetLEDOn
    botsm_1.o(i.DuringBotIdle) refers to noretval__2printf.o(.text) for __2printf
    botsm_1.o(i.DuringBotIdle) refers to atcityshootsm.o(i.SetShouldShootList) for SetShouldShootList
    botsm_1.o(i.DuringBotIdle) refers to irsensorhw.o(i.SetTargetBasedOnMyTeam) for SetTargetBasedOnMyTeam
    botsm_1.o(i.DuringBotIdle) refers to citysensorhw.o(i.EnableCitySensorInts) for EnableCitySensorInts
    botsm_1.o(i.DuringBotIdle) refers to botsm_1.o(.data) for .data
    botsm_1.o(i.GetTeamColor) refers to botsm_1.o(.data) for .data
    botsm_1.o(i.QueryBotSM) refers to botsm_1.o(.data) for .data
    botsm_1.o(i.RunBotSM) refers to _printf_pad.o(.text) for _printf_pre_padding
    botsm_1.o(i.RunBotSM) refers to _printf_percent.o(.ARM.Collect$$_printf_percent$$00000000) for _printf_percent
    botsm_1.o(i.RunBotSM) refers to _printf_x.o(.ARM.Collect$$_printf_percent$$0000000C) for _printf_x
    botsm_1.o(i.RunBotSM) refers to _printf_hex_int.o(.text) for _printf_longlong_hex
    botsm_1.o(i.RunBotSM) refers to botsm_1.o(i.DuringBotIdle) for DuringBotIdle
    botsm_1.o(i.RunBotSM) refers to atcityshootsm.o(i.ResetBallCounter) for ResetBallCounter
    botsm_1.o(i.RunBotSM) refers to paccommsm.o(i.GetPACMsg) for GetPACMsg
    botsm_1.o(i.RunBotSM) refers to noretval__2printf.o(.text) for __2printf
    botsm_1.o(i.RunBotSM) refers to eventprinter.o(i.PostEventPrinter) for PostEventPrinter
    botsm_1.o(i.RunBotSM) refers to mastersm.o(i.PostMasterSM) for PostMasterSM
    botsm_1.o(i.RunBotSM) refers to findingcitynavsm.o(i.RunFindingCityNavSM) for RunFindingCityNavSM
    botsm_1.o(i.RunBotSM) refers to findingcitynavsm.o(i.StartFindingCityNavSM) for StartFindingCityNavSM
    botsm_1.o(i.RunBotSM) refers to project_motorservice.o(i.SetMotorDutyCycles) for SetMotorDutyCycles
    botsm_1.o(i.RunBotSM) refers to linesensorshw.o(i.ClearLineSensorReadings) for ClearLineSensorReadings
    botsm_1.o(i.RunBotSM) refers to atcitycommsm.o(i.RunAtCityCommSM) for RunAtCityCommSM
    botsm_1.o(i.RunBotSM) refers to atcityshootsm.o(i.RunAtCityShootSM) for RunAtCityShootSM
    botsm_1.o(i.RunBotSM) refers to citysensorhw.o(i.ClearFindCityCounter) for ClearFindCityCounter
    botsm_1.o(i.RunBotSM) refers to es_timers.o(i.ES_Timer_InitTimer) for ES_Timer_InitTimer
    botsm_1.o(i.RunBotSM) refers to atcitycommsm.o(i.StartAtCityCommSM) for StartAtCityCommSM
    botsm_1.o(i.RunBotSM) refers to atcityshootsm.o(i.StartAtCityShootSM) for StartAtCityShootSM
    botsm_1.o(i.RunBotSM) refers to es_timers.o(i.ES_Timer_StopTimer) for ES_Timer_StopTimer
    botsm_1.o(i.RunBotSM) refers to botsm_1.o(.data) for .data
    botsm_1.o(i.RunBotSM) refers to botsm_1.o(.constdata) for .constdata
    botsm_1.o(i.StartBotSM) refers to botsm_1.o(i.RunBotSM) for RunBotSM
    botsm_1.o(i.StartBotSM) refers to botsm_1.o(.data) for .data
    gametimersm.o(i.Check4GameOver) refers to gametimersm.o(i.GetTimeLeft) for GetTimeLeft
    gametimersm.o(i.Check4GameOver) refers to mastersm.o(i.PostMasterSM) for PostMasterSM
    gametimersm.o(i.GetTimeLeft) refers to es_timers.o(i.ES_Timer_GetTime) for ES_Timer_GetTime
    gametimersm.o(i.GetTimeLeft) refers to gametimersm.o(.data) for .data
    gametimersm.o(i.QueryGameTimerSM) refers to gametimersm.o(.data) for .data
    gametimersm.o(i.RunGameTimerSM) refers to es_timers.o(i.ES_Timer_InitTimer) for ES_Timer_InitTimer
    gametimersm.o(i.RunGameTimerSM) refers to es_timers.o(i.ES_Timer_GetTime) for ES_Timer_GetTime
    gametimersm.o(i.RunGameTimerSM) refers to gametimersm.o(.data) for .data
    gametimersm.o(i.RunGameTimerSM) refers to gametimersm.o(.constdata) for .constdata
    gametimersm.o(i.StartGameTimerSM) refers to gametimersm.o(i.RunGameTimerSM) for RunGameTimerSM
    gametimersm.o(i.StartGameTimerSM) refers to gametimersm.o(.data) for .data
    paccommsm.o(i.GetPACMsg) refers to paccommsm.o(.data) for .data
    paccommsm.o(i.QueryPACCommSM) refers to paccommsm.o(.data) for .data
    paccommsm.o(i.RunPACCommSM) refers to ssihw.o(i.TransmitSSI) for TransmitSSI
    paccommsm.o(i.RunPACCommSM) refers to ssihw.o(i.ReadSSI) for ReadSSI
    paccommsm.o(i.RunPACCommSM) refers to es_timers.o(i.ES_Timer_InitTimer) for ES_Timer_InitTimer
    paccommsm.o(i.RunPACCommSM) refers to mastersm.o(i.PostMasterSM) for PostMasterSM
    paccommsm.o(i.RunPACCommSM) refers to paccommsm.o(.data) for .data
    paccommsm.o(i.RunPACCommSM) refers to paccommsm.o(.constdata) for .constdata
    paccommsm.o(i.StartPACCommSM) refers to paccommsm.o(i.RunPACCommSM) for RunPACCommSM
    paccommsm.o(i.StartPACCommSM) refers to paccommsm.o(.data) for .data
    atcitycommsm.o(i.DuringAtCityRequesting) refers to _printf_pad.o(.text) for _printf_pre_padding
    atcitycommsm.o(i.DuringAtCityRequesting) refers to _printf_percent.o(.ARM.Collect$$_printf_percent$$00000000) for _printf_percent
    atcitycommsm.o(i.DuringAtCityRequesting) refers to _printf_d.o(.ARM.Collect$$_printf_percent$$00000009) for _printf_d
    atcitycommsm.o(i.DuringAtCityRequesting) refers to _printf_x.o(.ARM.Collect$$_printf_percent$$0000000C) for _printf_x
    atcitycommsm.o(i.DuringAtCityRequesting) refers to _printf_dec.o(.text) for _printf_int_dec
    atcitycommsm.o(i.DuringAtCityRequesting) refers to _printf_hex_int.o(.text) for _printf_longlong_hex
    atcitycommsm.o(i.DuringAtCityRequesting) refers to citysensorhw.o(i.GetCityPeriodUS) for GetCityPeriodUS
    atcitycommsm.o(i.DuringAtCityRequesting) refers to noretval__2printf.o(.text) for __2printf
    atcitycommsm.o(i.DuringAtCityRequesting) refers to atcitycommsm.o(i.ConvertToFreqCode) for ConvertToFreqCode
    atcitycommsm.o(i.DuringAtCityRequesting) refers to botsm_1.o(i.GetTeamColor) for GetTeamColor
    atcitycommsm.o(i.DuringAtCityRequesting) refers to mastersm.o(i.PostMasterSM) for PostMasterSM
    atcitycommsm.o(i.DuringAtCityRequesting) refers to eventprinter.o(i.PostEventPrinter) for PostEventPrinter
    atcitycommsm.o(i.QueryAtCityCommSM) refers to atcitycommsm.o(.data) for .data
    atcitycommsm.o(i.RunAtCityCommSM) refers to atcitycommsm.o(i.DuringAtCityRequesting) for DuringAtCityRequesting
    atcitycommsm.o(i.RunAtCityCommSM) refers to es_timers.o(i.ES_Timer_InitTimer) for ES_Timer_InitTimer
    atcitycommsm.o(i.RunAtCityCommSM) refers to mastersm.o(i.PostMasterSM) for PostMasterSM
    atcitycommsm.o(i.RunAtCityCommSM) refers to paccommsm.o(i.GetPACMsg) for GetPACMsg
    atcitycommsm.o(i.RunAtCityCommSM) refers to eventprinter.o(i.PostEventPrinter) for PostEventPrinter
    atcitycommsm.o(i.RunAtCityCommSM) refers to botsm_1.o(i.GetTeamColor) for GetTeamColor
    atcitycommsm.o(i.RunAtCityCommSM) refers to atcityshootsm.o(i.GetBallCount) for GetBallCount
    atcitycommsm.o(i.RunAtCityCommSM) refers to atcityshootsm.o(i.GetCityShootStatus) for GetCityShootStatus
    atcitycommsm.o(i.RunAtCityCommSM) refers to noretval__2printf.o(.text) for __2printf
    atcitycommsm.o(i.RunAtCityCommSM) refers to atcityshootsm.o(i.QueryAtCityShootSM) for QueryAtCityShootSM
    atcitycommsm.o(i.RunAtCityCommSM) refers to atcitycommsm.o(.data) for .data
    atcitycommsm.o(i.RunAtCityCommSM) refers to atcitycommsm.o(.constdata) for .constdata
    atcitycommsm.o(i.RunAtCityCommSM) refers to atcitycommsm.o(.conststring) for .conststring
    atcitycommsm.o(i.StartAtCityCommSM) refers to atcitycommsm.o(i.RunAtCityCommSM) for RunAtCityCommSM
    atcitycommsm.o(i.StartAtCityCommSM) refers to atcitycommsm.o(.data) for .data
    mapkeys.o(i.InitMapKeys) refers to mapkeys.o(.data) for .data
    mapkeys.o(i.PostMapKeys) refers to es_framework.o(i.ES_PostToService) for ES_PostToService
    mapkeys.o(i.PostMapKeys) refers to mapkeys.o(.data) for .data
    mapkeys.o(i.ReportAllStates) refers to noretval__2printf.o(.text) for __2printf
    mapkeys.o(i.ReportAllStates) refers to gametimersm.o(i.QueryGameTimerSM) for QueryGameTimerSM
    mapkeys.o(i.ReportAllStates) refers to paccommsm.o(i.QueryPACCommSM) for QueryPACCommSM
    mapkeys.o(i.ReportAllStates) refers to botsm_1.o(i.QueryBotSM) for QueryBotSM
    mapkeys.o(i.ReportAllStates) refers to findingcitynavsm.o(i.QueryFindingCityNavSM) for QueryFindingCityNavSM
    mapkeys.o(i.ReportAllStates) refers to atcitycommsm.o(i.QueryAtCityCommSM) for QueryAtCityCommSM
    mapkeys.o(i.ReportAllStates) refers to atcityshootsm.o(i.QueryAtCityShootSM) for QueryAtCityShootSM
    mapkeys.o(i.RunMapKeys) refers to _printf_percent.o(.ARM.Collect$$_printf_percent$$00000000) for _printf_percent
    mapkeys.o(i.RunMapKeys) refers to _printf_c.o(.ARM.Collect$$_printf_percent$$00000013) for _printf_c
    mapkeys.o(i.RunMapKeys) refers to _printf_str.o(.text) for _printf_str
    mapkeys.o(i.RunMapKeys) refers to toupper.o(.text) for toupper
    mapkeys.o(i.RunMapKeys) refers to noretval__2printf.o(.text) for __2printf
    mapkeys.o(i.RunMapKeys) refers to mapkeys.o(i.ReportAllStates) for ReportAllStates
    mapkeys.o(i.RunMapKeys) refers to eventprinter.o(i.PostEventPrinter) for PostEventPrinter
    mapkeys.o(i.RunMapKeys) refers to mastersm.o(i.PostMasterSM) for PostMasterSM
    atcityshootsm.o(i.GetBallCount) refers to atcityshootsm.o(.data) for .data
    atcityshootsm.o(i.GetCityShootStatus) refers to atcityshootsm.o(.bss) for .bss
    atcityshootsm.o(i.QueryAtCityShootSM) refers to atcityshootsm.o(.data) for .data
    atcityshootsm.o(i.ResetBallCounter) refers to atcityshootsm.o(.data) for .data
    atcityshootsm.o(i.RunAtCityShootSM) refers to es_timers.o(i.ES_Timer_InitTimer) for ES_Timer_InitTimer
    atcityshootsm.o(i.RunAtCityShootSM) refers to noretval__2printf.o(.text) for __2printf
    atcityshootsm.o(i.RunAtCityShootSM) refers to irsensorhw.o(i.EnableIRInts) for EnableIRInts
    atcityshootsm.o(i.RunAtCityShootSM) refers to project_motorservice.o(i.SetMotorDutyCycles) for SetMotorDutyCycles
    atcityshootsm.o(i.RunAtCityShootSM) refers to es_timers.o(i.ES_Timer_GetTime) for ES_Timer_GetTime
    atcityshootsm.o(i.RunAtCityShootSM) refers to irsensorhw.o(i.DisableIRInts) for DisableIRInts
    atcityshootsm.o(i.RunAtCityShootSM) refers to cammotorhw.o(i.SetCAMMotorOn) for SetCAMMotorOn
    atcityshootsm.o(i.RunAtCityShootSM) refers to cammotorhw.o(i.SetCAMMotorOff) for SetCAMMotorOff
    atcityshootsm.o(i.RunAtCityShootSM) refers to atcitycommsm.o(i.QueryAtCityCommSM) for QueryAtCityCommSM
    atcityshootsm.o(i.RunAtCityShootSM) refers to mastersm.o(i.PostMasterSM) for PostMasterSM
    atcityshootsm.o(i.RunAtCityShootSM) refers to eventprinter.o(i.PostEventPrinter) for PostEventPrinter
    atcityshootsm.o(i.RunAtCityShootSM) refers to atcityshootsm.o(.data) for .data
    atcityshootsm.o(i.RunAtCityShootSM) refers to atcityshootsm.o(.constdata) for .constdata
    atcityshootsm.o(i.RunAtCityShootSM) refers to atcityshootsm.o(.bss) for .bss
    atcityshootsm.o(i.SetShouldShootList) refers to atcityshootsm.o(.bss) for .bss
    atcityshootsm.o(i.SetShouldShootList) refers to atcityshootsm.o(.data) for .data
    atcityshootsm.o(i.StartAtCityShootSM) refers to atcityshootsm.o(i.RunAtCityShootSM) for RunAtCityShootSM
    atcityshootsm.o(i.StartAtCityShootSM) refers to atcityshootsm.o(.data) for .data
    findingcitynavsm.o(i.DuringRotatingOnLine) refers to linesensorshw.o(i.GetLineReading) for GetLineReading
    findingcitynavsm.o(i.DuringRotatingOnLine) refers to project_motorservice.o(i.SetMotorDutyCycles) for SetMotorDutyCycles
    findingcitynavsm.o(i.DuringRotatingOnLine) refers to es_timers.o(i.ES_Timer_InitTimer) for ES_Timer_InitTimer
    findingcitynavsm.o(i.DuringRotatingOnLine) refers to es_timers.o(i.ES_Timer_StopTimer) for ES_Timer_StopTimer
    findingcitynavsm.o(i.DuringRotatingOnLine) refers to findingcitynavsm.o(.data) for .data
    findingcitynavsm.o(i.QueryFindingCityNavSM) refers to findingcitynavsm.o(.data) for .data
    findingcitynavsm.o(i.RunFindingCityNavSM) refers to project_motorservice.o(i.SetMotorDutyCycles) for SetMotorDutyCycles
    findingcitynavsm.o(i.RunFindingCityNavSM) refers to es_timers.o(i.ES_Timer_InitTimer) for ES_Timer_InitTimer
    findingcitynavsm.o(i.RunFindingCityNavSM) refers to es_timers.o(i.ES_Timer_StopTimer) for ES_Timer_StopTimer
    findingcitynavsm.o(i.RunFindingCityNavSM) refers to findingcitynavsm.o(i.DuringRotatingOnLine) for DuringRotatingOnLine
    findingcitynavsm.o(i.RunFindingCityNavSM) refers to project_motorservice.o(i.EnableLineFollowInts) for EnableLineFollowInts
    findingcitynavsm.o(i.RunFindingCityNavSM) refers to project_motorservice.o(i.DisableLineFollowInts) for DisableLineFollowInts
    findingcitynavsm.o(i.RunFindingCityNavSM) refers to findingcitynavsm.o(.data) for .data
    findingcitynavsm.o(i.RunFindingCityNavSM) refers to findingcitynavsm.o(.constdata) for .constdata
    findingcitynavsm.o(i.StartFindingCityNavSM) refers to findingcitynavsm.o(i.RunFindingCityNavSM) for RunFindingCityNavSM
    findingcitynavsm.o(i.StartFindingCityNavSM) refers to findingcitynavsm.o(.data) for .data
    project_motorservice.o(i.ControllerInterruptResponse) refers to project_motorservice.o(i.GetRPM0) for GetRPM0
    project_motorservice.o(i.ControllerInterruptResponse) refers to project_motorservice.o(i.GetRPM1) for GetRPM1
    project_motorservice.o(i.ControllerInterruptResponse) refers to dflt_clz.o(x$fpl$dflt) for __aeabi_i2d
    project_motorservice.o(i.ControllerInterruptResponse) refers to dmul.o(x$fpl$dmul) for __aeabi_dmul
    project_motorservice.o(i.ControllerInterruptResponse) refers to f2d.o(x$fpl$f2d) for __aeabi_f2d
    project_motorservice.o(i.ControllerInterruptResponse) refers to daddsub_clz.o(x$fpl$dadd) for __aeabi_dadd
    project_motorservice.o(i.ControllerInterruptResponse) refers to d2f.o(x$fpl$d2f) for __aeabi_d2f
    project_motorservice.o(i.ControllerInterruptResponse) refers to project_motorservice.o(.data) for .data
    project_motorservice.o(i.GetRPM0) refers to project_motorservice.o(.data) for .data
    project_motorservice.o(i.GetRPM1) refers to project_motorservice.o(.data) for .data
    project_motorservice.o(i.InitMotorService) refers to project_pwmlab.o(i.PWMInit) for PWMInit
    project_motorservice.o(i.InitMotorService) refers to project_motorservice.o(i.SetMotorDutyCycles) for SetMotorDutyCycles
    project_motorservice.o(i.InitMotorService) refers to linesensorshw.o(i.InitLineSensorsHW) for InitLineSensorsHW
    project_motorservice.o(i.InitMotorService) refers to project_motorservice.o(i.InitEncoderInterrupt) for InitEncoderInterrupt
    project_motorservice.o(i.InitMotorService) refers to project_motorservice.o(i.InitControllerInterrupt) for InitControllerInterrupt
    project_motorservice.o(i.InitMotorService) refers to project_motorservice.o(i.DisableLineFollowInts) for DisableLineFollowInts
    project_motorservice.o(i.InitMotorService) refers to es_timers.o(i.ES_Timer_InitTimer) for ES_Timer_InitTimer
    project_motorservice.o(i.InitMotorService) refers to noretval__2printf.o(.text) for __2printf
    project_motorservice.o(i.InitMotorService) refers to es_framework.o(i.ES_PostToService) for ES_PostToService
    project_motorservice.o(i.InitMotorService) refers to project_motorservice.o(.data) for .data
    project_motorservice.o(i.InputCaptureResponse0) refers to project_motorservice.o(.data) for .data
    project_motorservice.o(i.InputCaptureResponse1) refers to project_motorservice.o(.data) for .data
    project_motorservice.o(i.OnLineMotorSpeedsInterrupt) refers to linesensorshw.o(i.GetLineReading) for GetLineReading
    project_motorservice.o(i.OnLineMotorSpeedsInterrupt) refers to project_motorservice.o(i.SetMotorDutyCycles) for SetMotorDutyCycles
    project_motorservice.o(i.PostMotorService) refers to es_framework.o(i.ES_PostToService) for ES_PostToService
    project_motorservice.o(i.PostMotorService) refers to project_motorservice.o(.data) for .data
    project_motorservice.o(i.PrintRPM) refers to project_motorservice.o(.data) for .data
    project_motorservice.o(i.RunMotorService) refers to project_motorservice.o(i.PrintRPM) for PrintRPM
    project_motorservice.o(i.RunMotorService) refers to es_timers.o(i.ES_Timer_InitTimer) for ES_Timer_InitTimer
    project_motorservice.o(i.RunMotorService) refers to project_motorservice.o(.data) for .data
    project_motorservice.o(i.SetMotorDutyCycles) refers to project_pwmlab.o(i.setDuty) for setDuty
    project_motorservice.o(i.SetMotorRPM) refers to project_motorservice.o(.data) for .data
    project_motorservice.o(i.TimeoutResponse0) refers to project_motorservice.o(.data) for .data
    project_motorservice.o(i.TimeoutResponse1) refers to project_motorservice.o(.data) for .data
    project_motorservice.o(i.subroutine) refers to _printf_percent.o(.ARM.Collect$$_printf_percent$$00000000) for _printf_percent
    project_motorservice.o(i.subroutine) refers to _printf_d.o(.ARM.Collect$$_printf_percent$$00000009) for _printf_d
    project_motorservice.o(i.subroutine) refers to _printf_dec.o(.text) for _printf_int_dec
    project_motorservice.o(i.subroutine) refers to linesensorshw.o(i.GetLineReading) for GetLineReading
    project_motorservice.o(i.subroutine) refers to noretval__2printf.o(.text) for __2printf
    project_motorservice.o(i.subroutine) refers to project_motorservice.o(i.SetMotorDutyCycles) for SetMotorDutyCycles
    periodiceventcheckerservice.o(i.Check4SwitchChange) refers to switcheshw.o(i.ReadSwitch) for ReadSwitch
    periodiceventcheckerservice.o(i.Check4SwitchChange) refers to mastersm.o(i.PostMasterSM) for PostMasterSM
    periodiceventcheckerservice.o(i.Check4SwitchChange) refers to eventprinter.o(i.PostEventPrinter) for PostEventPrinter
    periodiceventcheckerservice.o(i.Check4SwitchChange) refers to periodiceventcheckerservice.o(.data) for .data
    periodiceventcheckerservice.o(i.GetSwitchStatus) refers to periodiceventcheckerservice.o(.data) for .data
    periodiceventcheckerservice.o(i.InitPeriodicEventCheckerService) refers to switcheshw.o(i.ReadSwitch) for ReadSwitch
    periodiceventcheckerservice.o(i.InitPeriodicEventCheckerService) refers to es_timers.o(i.ES_Timer_InitTimer) for ES_Timer_InitTimer
    periodiceventcheckerservice.o(i.InitPeriodicEventCheckerService) refers to es_framework.o(i.ES_PostToService) for ES_PostToService
    periodiceventcheckerservice.o(i.InitPeriodicEventCheckerService) refers to periodiceventcheckerservice.o(.data) for .data
    periodiceventcheckerservice.o(i.PostPeriodicEventCheckerService) refers to es_framework.o(i.ES_PostToService) for ES_PostToService
    periodiceventcheckerservice.o(i.PostPeriodicEventCheckerService) refers to periodiceventcheckerservice.o(.data) for .data
    periodiceventcheckerservice.o(i.RunPeriodicEventCheckerService) refers to linesensorshw.o(i.UpdateAllLineReadings) for UpdateAllLineReadings
    periodiceventcheckerservice.o(i.RunPeriodicEventCheckerService) refers to linesensorshw.o(i.Check4CenterOnBlackLine) for Check4CenterOnBlackLine
    periodiceventcheckerservice.o(i.RunPeriodicEventCheckerService) refers to linesensorshw.o(i.Check4LineAligned) for Check4LineAligned
    periodiceventcheckerservice.o(i.RunPeriodicEventCheckerService) refers to periodiceventcheckerservice.o(i.Check4SwitchChange) for Check4SwitchChange
    periodiceventcheckerservice.o(i.RunPeriodicEventCheckerService) refers to gametimersm.o(i.Check4GameOver) for Check4GameOver
    periodiceventcheckerservice.o(i.RunPeriodicEventCheckerService) refers to es_timers.o(i.ES_Timer_InitTimer) for ES_Timer_InitTimer
    periodiceventcheckerservice.o(i.RunPeriodicEventCheckerService) refers to periodiceventcheckerservice.o(.data) for .data
    pwmservo.o(i.CloseFeedGate) refers to pwmservo.o(i.ServoSetDutyCycle) for ServoSetDutyCycle
    pwmservo.o(i.InitServoPWM) refers to pwmservo.o(i.ServoSetDutyCycle) for ServoSetDutyCycle
    pwmservo.o(i.OpenFeedGate) refers to pwmservo.o(i.ServoSetDutyCycle) for ServoSetDutyCycle
    startup_rvmdk.o(STACK) refers (Special) to heapauxi.o(.text) for __use_two_region_memory
    startup_rvmdk.o(HEAP) refers (Special) to heapauxi.o(.text) for __use_two_region_memory
    startup_rvmdk.o(RESET) refers (Special) to heapauxi.o(.text) for __use_two_region_memory
    startup_rvmdk.o(RESET) refers to startup_rvmdk.o(STACK) for StackMem
    startup_rvmdk.o(RESET) refers to es_port.o(i.SysTickIntHandler) for SysTickIntHandler
    startup_rvmdk.o(RESET) refers to ssihw.o(i.SSIHWEOTIntHandler) for SSIHWEOTIntHandler
    startup_rvmdk.o(RESET) refers to project_motorservice.o(i.InputCaptureResponse0) for InputCaptureResponse0
    startup_rvmdk.o(RESET) refers to project_motorservice.o(i.TimeoutResponse0) for TimeoutResponse0
    startup_rvmdk.o(RESET) refers to project_motorservice.o(i.InputCaptureResponse1) for InputCaptureResponse1
    startup_rvmdk.o(RESET) refers to project_motorservice.o(i.TimeoutResponse1) for TimeoutResponse1
    startup_rvmdk.o(RESET) refers to citysensorhw.o(i.CityIntHandler) for CityIntHandler
    startup_rvmdk.o(RESET) refers to citysensorhw.o(i.CityTOIntHandler) for CityTOIntHandler
    startup_rvmdk.o(RESET) refers to irsensorhw.o(i.IRIntHandler) for IRIntHandler
    startup_rvmdk.o(RESET) refers to irsensorhw.o(i.IRTOIntHandler) for IRTOIntHandler
    startup_rvmdk.o(RESET) refers to project_motorservice.o(i.ControllerInterruptResponse) for ControllerInterruptResponse
    startup_rvmdk.o(RESET) refers to project_motorservice.o(i.OnLineMotorSpeedsInterrupt) for OnLineMotorSpeedsInterrupt
    startup_rvmdk.o(RESET) refers to __main.o(!!!main) for __main
    startup_rvmdk.o(.text) refers (Special) to heapauxi.o(.text) for __use_two_region_memory
    startup_rvmdk.o(.text) refers to startup_rvmdk.o(HEAP) for HeapMem
    startup_rvmdk.o(.text) refers to startup_rvmdk.o(STACK) for StackMem
    es_checkevents.o(i.ES_CheckUserEvents) refers to es_checkevents.o(.constdata) for .constdata
    es_checkevents.o(.constdata) refers to eventcheckers.o(i.Check4Keystroke) for Check4Keystroke
    es_deferrecall.o(i.ES_RecallEvents) refers to es_queue.o(i.ES_DeQueue) for ES_DeQueue
    es_deferrecall.o(i.ES_RecallEvents) refers to es_framework.o(i.ES_PostToServiceLIFO) for ES_PostToServiceLIFO
    es_framework.o(i.ES_Initialize) refers to es_timers.o(i.ES_Timer_Init) for ES_Timer_Init
    es_framework.o(i.ES_Initialize) refers to es_queue.o(i.ES_InitQueue) for ES_InitQueue
    es_framework.o(i.ES_Initialize) refers to es_framework.o(.constdata) for .constdata
    es_framework.o(i.ES_PostAll) refers to es_queue.o(i.ES_EnQueueFIFO) for ES_EnQueueFIFO
    es_framework.o(i.ES_PostAll) refers to es_framework.o(.constdata) for .constdata
    es_framework.o(i.ES_PostAll) refers to es_lookuptables.o(.constdata) for BitNum2SetMask
    es_framework.o(i.ES_PostAll) refers to es_framework.o(.data) for .data
    es_framework.o(i.ES_PostToService) refers to es_queue.o(i.ES_EnQueueFIFO) for ES_EnQueueFIFO
    es_framework.o(i.ES_PostToService) refers to es_framework.o(.constdata) for .constdata
    es_framework.o(i.ES_PostToService) refers to es_lookuptables.o(.constdata) for BitNum2SetMask
    es_framework.o(i.ES_PostToService) refers to es_framework.o(.data) for .data
    es_framework.o(i.ES_PostToServiceLIFO) refers to es_queue.o(i.ES_EnQueueLIFO) for ES_EnQueueLIFO
    es_framework.o(i.ES_PostToServiceLIFO) refers to es_framework.o(.constdata) for .constdata
    es_framework.o(i.ES_PostToServiceLIFO) refers to es_lookuptables.o(.constdata) for BitNum2SetMask
    es_framework.o(i.ES_PostToServiceLIFO) refers to es_framework.o(.data) for .data
    es_framework.o(i.ES_Run) refers to es_lookuptables.o(i.ES_GetMSBitSet) for ES_GetMSBitSet
    es_framework.o(i.ES_Run) refers to es_queue.o(i.ES_DeQueue) for ES_DeQueue
    es_framework.o(i.ES_Run) refers to es_port.o(i._HW_Process_Pending_Ints) for _HW_Process_Pending_Ints
    es_framework.o(i.ES_Run) refers to es_checkevents.o(i.ES_CheckUserEvents) for ES_CheckUserEvents
    es_framework.o(i.ES_Run) refers to es_framework.o(.data) for .data
    es_framework.o(i.ES_Run) refers to es_framework.o(.constdata) for .constdata
    es_framework.o(i.ES_Run) refers to es_lookuptables.o(.constdata) for BitNum2SetMask
    es_framework.o(.constdata) refers to mapkeys.o(i.InitMapKeys) for InitMapKeys
    es_framework.o(.constdata) refers to mapkeys.o(i.RunMapKeys) for RunMapKeys
    es_framework.o(.constdata) refers to eventprinter.o(i.InitEventPrinter) for InitEventPrinter
    es_framework.o(.constdata) refers to eventprinter.o(i.RunEventPrinter) for RunEventPrinter
    es_framework.o(.constdata) refers to periodiceventcheckerservice.o(i.InitPeriodicEventCheckerService) for InitPeriodicEventCheckerService
    es_framework.o(.constdata) refers to periodiceventcheckerservice.o(i.RunPeriodicEventCheckerService) for RunPeriodicEventCheckerService
    es_framework.o(.constdata) refers to mastersm.o(i.InitMasterSM) for InitMasterSM
    es_framework.o(.constdata) refers to mastersm.o(i.RunMasterSM) for RunMasterSM
    es_framework.o(.constdata) refers to project_motorservice.o(i.InitMotorService) for InitMotorService
    es_framework.o(.constdata) refers to project_motorservice.o(i.RunMotorService) for RunMotorService
    es_framework.o(.constdata) refers to es_framework.o(.bss) for Queue0
    es_framework.o(.constdata) refers to es_framework.o(.bss) for Queue1
    es_framework.o(.constdata) refers to es_framework.o(.bss) for Queue2
    es_framework.o(.constdata) refers to es_framework.o(.bss) for Queue3
    es_framework.o(.constdata) refers to es_framework.o(.bss) for Queue4
    es_lookuptables.o(i.ES_GetMSBitSet) refers to es_lookuptables.o(.constdata) for .constdata
    es_port.o(i.ConsoleInit) refers to sysctl.o(i.SysCtlPeripheralEnable) for SysCtlPeripheralEnable
    es_port.o(i.ConsoleInit) refers to gpio.o(i.GPIOPinConfigure) for GPIOPinConfigure
    es_port.o(i.ConsoleInit) refers to gpio.o(i.GPIOPinTypeUART) for GPIOPinTypeUART
    es_port.o(i.ConsoleInit) refers to uart.o(i.UARTClockSourceSet) for UARTClockSourceSet
    es_port.o(i.ConsoleInit) refers to uartstdio.o(i.UARTStdioConfig) for UARTStdioConfig
    es_port.o(i.SysTickIntHandler) refers to es_port.o(.data) for .data
    es_port.o(i._HW_GetTickCount) refers to es_port.o(.data) for .data
    es_port.o(i._HW_Process_Pending_Ints) refers to es_timers.o(i.ES_Timer_Tick_Resp) for ES_Timer_Tick_Resp
    es_port.o(i._HW_Process_Pending_Ints) refers to es_port.o(.data) for .data
    es_port.o(i._HW_Timer_Init) refers to systick.o(i.SysTickPeriodSet) for SysTickPeriodSet
    es_port.o(i._HW_Timer_Init) refers to systick.o(i.SysTickIntEnable) for SysTickIntEnable
    es_port.o(i._HW_Timer_Init) refers to systick.o(i.SysTickEnable) for SysTickEnable
    es_port.o(i._HW_Timer_Init) refers to interrupt.o(i.IntMasterEnable) for IntMasterEnable
    es_postlist.o(i.ES_PostList00) refers to es_postlist.o(i.PostToList) for PostToList
    es_postlist.o(i.ES_PostList00) refers to es_postlist.o(.constdata) for .constdata
    es_postlist.o(i.ES_PostList01) refers to es_postlist.o(i.PostToList) for PostToList
    es_postlist.o(i.ES_PostList01) refers to es_postlist.o(.constdata) for .constdata
    es_postlist.o(i.ES_PostList02) refers to es_postlist.o(i.PostToList) for PostToList
    es_postlist.o(i.ES_PostList02) refers to es_postlist.o(.constdata) for .constdata
    es_postlist.o(.constdata) refers to mastersm.o(i.PostMasterSM) for PostMasterSM
    es_postlist.o(.constdata) refers to mapkeys.o(i.PostMapKeys) for PostMapKeys
    es_postlist.o(.constdata) refers to eventprinter.o(i.PostEventPrinter) for PostEventPrinter
    es_postlist.o(.constdata) refers to periodiceventcheckerservice.o(i.PostPeriodicEventCheckerService) for PostPeriodicEventCheckerService
    es_queue.o(i.ES_DeQueue) refers to es_port.o(i.CPUgetPRIMASK_cpsid) for CPUgetPRIMASK_cpsid
    es_queue.o(i.ES_DeQueue) refers to es_port.o(i.CPUsetPRIMASK) for CPUsetPRIMASK
    es_queue.o(i.ES_DeQueue) refers to es_queue.o(.data) for .data
    es_queue.o(i.ES_EnQueueFIFO) refers to es_port.o(i.CPUgetPRIMASK_cpsid) for CPUgetPRIMASK_cpsid
    es_queue.o(i.ES_EnQueueFIFO) refers to es_port.o(i.CPUsetPRIMASK) for CPUsetPRIMASK
    es_queue.o(i.ES_EnQueueFIFO) refers to es_queue.o(.data) for .data
    es_queue.o(i.ES_EnQueueLIFO) refers to es_port.o(i.CPUgetPRIMASK_cpsid) for CPUgetPRIMASK_cpsid
    es_queue.o(i.ES_EnQueueLIFO) refers to es_port.o(i.CPUsetPRIMASK) for CPUsetPRIMASK
    es_queue.o(i.ES_EnQueueLIFO) refers to es_queue.o(.data) for .data
    es_timers.o(i.ES_Timer_GetTime) refers to es_port.o(i._HW_GetTickCount) for _HW_GetTickCount
    es_timers.o(i.ES_Timer_Init) refers to es_port.o(i._HW_Timer_Init) for _HW_Timer_Init
    es_timers.o(i.ES_Timer_InitTimer) refers to es_timers.o(.constdata) for .constdata
    es_timers.o(i.ES_Timer_InitTimer) refers to es_timers.o(.bss) for .bss
    es_timers.o(i.ES_Timer_InitTimer) refers to es_lookuptables.o(.constdata) for BitNum2SetMask
    es_timers.o(i.ES_Timer_InitTimer) refers to es_timers.o(.data) for .data
    es_timers.o(i.ES_Timer_SetTimer) refers to es_timers.o(.constdata) for .constdata
    es_timers.o(i.ES_Timer_SetTimer) refers to es_timers.o(.bss) for .bss
    es_timers.o(i.ES_Timer_StartTimer) refers to es_timers.o(.bss) for .bss
    es_timers.o(i.ES_Timer_StartTimer) refers to es_lookuptables.o(.constdata) for BitNum2SetMask
    es_timers.o(i.ES_Timer_StartTimer) refers to es_timers.o(.data) for .data
    es_timers.o(i.ES_Timer_StopTimer) refers to es_lookuptables.o(.constdata) for BitNum2SetMask
    es_timers.o(i.ES_Timer_StopTimer) refers to es_timers.o(.data) for .data
    es_timers.o(i.ES_Timer_Tick_Resp) refers to es_lookuptables.o(i.ES_GetMSBitSet) for ES_GetMSBitSet
    es_timers.o(i.ES_Timer_Tick_Resp) refers to es_timers.o(.data) for .data
    es_timers.o(i.ES_Timer_Tick_Resp) refers to es_timers.o(.bss) for .bss
    es_timers.o(i.ES_Timer_Tick_Resp) refers to es_lookuptables.o(.constdata) for BitNum2SetMask
    es_timers.o(i.ES_Timer_Tick_Resp) refers to es_timers.o(.constdata) for .constdata
    es_timers.o(.constdata) refers to es_postlist.o(i.ES_PostList01) for ES_PostList01
    es_timers.o(.constdata) refers to mastersm.o(i.PostMasterSM) for PostMasterSM
    es_timers.o(.constdata) refers to es_postlist.o(i.ES_PostList02) for ES_PostList02
    es_timers.o(.constdata) refers to project_motorservice.o(i.PostMotorService) for PostMotorService
    retarget.o(i._sys_exit) refers (Special) to use_no_semi.o(.text) for __use_no_semihosting_swi
    retarget.o(i._ttywrch) refers (Special) to use_no_semi.o(.text) for __use_no_semihosting_swi
    retarget.o(i._ttywrch) refers to termio.o(i.TERMIO_PutChar) for TERMIO_PutChar
    retarget.o(i.ferror) refers (Special) to use_no_semi.o(.text) for __use_no_semihosting_swi
    retarget.o(i.fgetc) refers (Special) to use_no_semi.o(.text) for __use_no_semihosting_swi
    retarget.o(i.fgetc) refers to termio.o(i.TERMIO_GetChar) for TERMIO_GetChar
    retarget.o(i.fputc) refers (Special) to use_no_semi.o(.text) for __use_no_semihosting_swi
    retarget.o(i.fputc) refers to termio.o(i.TERMIO_PutChar) for TERMIO_PutChar
    retarget.o(.data) refers (Special) to use_no_semi.o(.text) for __use_no_semihosting_swi
    retarget.o(.data) refers (Special) to use_no_semi.o(.text) for __use_no_semihosting_swi
    termio.o(i.TERMIO_GetChar) refers to uartstdio.o(i.UARTgetc) for UARTgetc
    termio.o(i.TERMIO_Init) refers to sysctl.o(i.SysCtlPeripheralEnable) for SysCtlPeripheralEnable
    termio.o(i.TERMIO_Init) refers to gpio.o(i.GPIOPinConfigure) for GPIOPinConfigure
    termio.o(i.TERMIO_Init) refers to gpio.o(i.GPIOPinTypeUART) for GPIOPinTypeUART
    termio.o(i.TERMIO_Init) refers to uart.o(i.UARTClockSourceSet) for UARTClockSourceSet
    termio.o(i.TERMIO_Init) refers to uartstdio.o(i.UARTStdioConfig) for UARTStdioConfig
    termio.o(i.TERMIO_PutChar) refers to uart.o(i.UARTCharPut) for UARTCharPut
    uartstdio.o(i.UARTStdioConfig) refers to uartstdio.o(.constdata) for .constdata
    uartstdio.o(i.UARTStdioConfig) refers to uartstdio.o(.data) for .data
    uartstdio.o(i.UARTgetc) refers to uartstdio.o(.data) for .data
    uartstdio.o(i.UARTgets) refers to uartstdio.o(i.UARTwrite) for UARTwrite
    uartstdio.o(i.UARTgets) refers to uartstdio.o(.data) for .data
    uartstdio.o(i.UARTprintf) refers to uartstdio.o(i.UARTvprintf) for UARTvprintf
    uartstdio.o(i.UARTvprintf) refers to uartstdio.o(i.UARTwrite) for UARTwrite
    uartstdio.o(i.UARTvprintf) refers to uartstdio.o(.constdata) for .constdata
    uartstdio.o(i.UARTwrite) refers to uartstdio.o(.data) for .data
    uartstdio.o(.constdata) refers to uartstdio.o(.conststring) for .conststring
    gpio.o(i.GPIOIntRegister) refers to interrupt.o(i.IntRegister) for IntRegister
    gpio.o(i.GPIOIntRegister) refers to interrupt.o(i.IntEnable) for IntEnable
    gpio.o(i.GPIOIntRegister) refers to gpio.o(.constdata) for .constdata
    gpio.o(i.GPIOIntUnregister) refers to interrupt.o(i.IntDisable) for IntDisable
    gpio.o(i.GPIOIntUnregister) refers to interrupt.o(i.IntUnregister) for IntUnregister
    gpio.o(i.GPIOIntUnregister) refers to gpio.o(.constdata) for .constdata
    gpio.o(i.GPIOPinConfigure) refers to gpio.o(.constdata) for .constdata
    gpio.o(i.GPIOPinTypeADC) refers to gpio.o(i.GPIODirModeSet) for GPIODirModeSet
    gpio.o(i.GPIOPinTypeADC) refers to gpio.o(i.GPIOPadConfigSet) for GPIOPadConfigSet
    gpio.o(i.GPIOPinTypeCAN) refers to gpio.o(i.GPIODirModeSet) for GPIODirModeSet
    gpio.o(i.GPIOPinTypeCAN) refers to gpio.o(i.GPIOPadConfigSet) for GPIOPadConfigSet
    gpio.o(i.GPIOPinTypeComparator) refers to gpio.o(i.GPIODirModeSet) for GPIODirModeSet
    gpio.o(i.GPIOPinTypeComparator) refers to gpio.o(i.GPIOPadConfigSet) for GPIOPadConfigSet
    gpio.o(i.GPIOPinTypeComparatorOutput) refers to gpio.o(i.GPIODirModeSet) for GPIODirModeSet
    gpio.o(i.GPIOPinTypeComparatorOutput) refers to gpio.o(i.GPIOPadConfigSet) for GPIOPadConfigSet
    gpio.o(i.GPIOPinTypeDIVSCLK) refers to gpio.o(i.GPIODirModeSet) for GPIODirModeSet
    gpio.o(i.GPIOPinTypeDIVSCLK) refers to gpio.o(i.GPIOPadConfigSet) for GPIOPadConfigSet
    gpio.o(i.GPIOPinTypeEPI) refers to gpio.o(i.GPIODirModeSet) for GPIODirModeSet
    gpio.o(i.GPIOPinTypeEPI) refers to gpio.o(i.GPIOPadConfigSet) for GPIOPadConfigSet
    gpio.o(i.GPIOPinTypeEthernetLED) refers to gpio.o(i.GPIODirModeSet) for GPIODirModeSet
    gpio.o(i.GPIOPinTypeEthernetLED) refers to gpio.o(i.GPIOPadConfigSet) for GPIOPadConfigSet
    gpio.o(i.GPIOPinTypeEthernetMII) refers to gpio.o(i.GPIODirModeSet) for GPIODirModeSet
    gpio.o(i.GPIOPinTypeEthernetMII) refers to gpio.o(i.GPIOPadConfigSet) for GPIOPadConfigSet
    gpio.o(i.GPIOPinTypeGPIOInput) refers to gpio.o(i.GPIODirModeSet) for GPIODirModeSet
    gpio.o(i.GPIOPinTypeGPIOInput) refers to gpio.o(i.GPIOPadConfigSet) for GPIOPadConfigSet
    gpio.o(i.GPIOPinTypeGPIOOutput) refers to gpio.o(i.GPIOPadConfigSet) for GPIOPadConfigSet
    gpio.o(i.GPIOPinTypeGPIOOutput) refers to gpio.o(i.GPIODirModeSet) for GPIODirModeSet
    gpio.o(i.GPIOPinTypeGPIOOutputOD) refers to gpio.o(i.GPIOPadConfigSet) for GPIOPadConfigSet
    gpio.o(i.GPIOPinTypeGPIOOutputOD) refers to gpio.o(i.GPIODirModeSet) for GPIODirModeSet
    gpio.o(i.GPIOPinTypeHibernateRTCCLK) refers to gpio.o(i.GPIODirModeSet) for GPIODirModeSet
    gpio.o(i.GPIOPinTypeHibernateRTCCLK) refers to gpio.o(i.GPIOPadConfigSet) for GPIOPadConfigSet
    gpio.o(i.GPIOPinTypeI2C) refers to gpio.o(i.GPIODirModeSet) for GPIODirModeSet
    gpio.o(i.GPIOPinTypeI2C) refers to gpio.o(i.GPIOPadConfigSet) for GPIOPadConfigSet
    gpio.o(i.GPIOPinTypeI2CSCL) refers to gpio.o(i.GPIODirModeSet) for GPIODirModeSet
    gpio.o(i.GPIOPinTypeI2CSCL) refers to gpio.o(i.GPIOPadConfigSet) for GPIOPadConfigSet
    gpio.o(i.GPIOPinTypeLCD) refers to gpio.o(i.GPIODirModeSet) for GPIODirModeSet
    gpio.o(i.GPIOPinTypeLCD) refers to gpio.o(i.GPIOPadConfigSet) for GPIOPadConfigSet
    gpio.o(i.GPIOPinTypeOneWire) refers to gpio.o(i.GPIODirModeSet) for GPIODirModeSet
    gpio.o(i.GPIOPinTypeOneWire) refers to gpio.o(i.GPIOPadConfigSet) for GPIOPadConfigSet
    gpio.o(i.GPIOPinTypePWM) refers to gpio.o(i.GPIODirModeSet) for GPIODirModeSet
    gpio.o(i.GPIOPinTypePWM) refers to gpio.o(i.GPIOPadConfigSet) for GPIOPadConfigSet
    gpio.o(i.GPIOPinTypeQEI) refers to gpio.o(i.GPIODirModeSet) for GPIODirModeSet
    gpio.o(i.GPIOPinTypeQEI) refers to gpio.o(i.GPIOPadConfigSet) for GPIOPadConfigSet
    gpio.o(i.GPIOPinTypeSSI) refers to gpio.o(i.GPIODirModeSet) for GPIODirModeSet
    gpio.o(i.GPIOPinTypeSSI) refers to gpio.o(i.GPIOPadConfigSet) for GPIOPadConfigSet
    gpio.o(i.GPIOPinTypeTimer) refers to gpio.o(i.GPIODirModeSet) for GPIODirModeSet
    gpio.o(i.GPIOPinTypeTimer) refers to gpio.o(i.GPIOPadConfigSet) for GPIOPadConfigSet
    gpio.o(i.GPIOPinTypeTrace) refers to gpio.o(i.GPIODirModeSet) for GPIODirModeSet
    gpio.o(i.GPIOPinTypeTrace) refers to gpio.o(i.GPIOPadConfigSet) for GPIOPadConfigSet
    gpio.o(i.GPIOPinTypeUART) refers to gpio.o(i.GPIODirModeSet) for GPIODirModeSet
    gpio.o(i.GPIOPinTypeUART) refers to gpio.o(i.GPIOPadConfigSet) for GPIOPadConfigSet
    gpio.o(i.GPIOPinTypeUSBAnalog) refers to gpio.o(i.GPIODirModeSet) for GPIODirModeSet
    gpio.o(i.GPIOPinTypeUSBAnalog) refers to gpio.o(i.GPIOPadConfigSet) for GPIOPadConfigSet
    gpio.o(i.GPIOPinTypeUSBDigital) refers to gpio.o(i.GPIODirModeSet) for GPIODirModeSet
    gpio.o(i.GPIOPinTypeUSBDigital) refers to gpio.o(i.GPIOPadConfigSet) for GPIOPadConfigSet
    gpio.o(i.GPIOPinTypeWakeHigh) refers to gpio.o(i.GPIODirModeSet) for GPIODirModeSet
    gpio.o(i.GPIOPinTypeWakeHigh) refers to gpio.o(i.GPIOPadConfigSet) for GPIOPadConfigSet
    gpio.o(i.GPIOPinTypeWakeLow) refers to gpio.o(i.GPIODirModeSet) for GPIODirModeSet
    gpio.o(i.GPIOPinTypeWakeLow) refers to gpio.o(i.GPIOPadConfigSet) for GPIOPadConfigSet
    interrupt.o(i.IntDisable) refers to interrupt.o(.constdata) for .constdata
    interrupt.o(i.IntEnable) refers to interrupt.o(.constdata) for .constdata
    interrupt.o(i.IntIsEnabled) refers to interrupt.o(.constdata) for .constdata
    interrupt.o(i.IntMasterDisable) refers to cpu.o(.emb_text) for CPUcpsid
    interrupt.o(i.IntMasterEnable) refers to cpu.o(.emb_text) for CPUcpsie
    interrupt.o(i.IntPendClear) refers to interrupt.o(.constdata) for .constdata
    interrupt.o(i.IntPendSet) refers to interrupt.o(.constdata) for .constdata
    interrupt.o(i.IntPriorityGet) refers to interrupt.o(.constdata) for .constdata
    interrupt.o(i.IntPriorityGroupingGet) refers to interrupt.o(.constdata) for .constdata
    interrupt.o(i.IntPriorityGroupingSet) refers to interrupt.o(.constdata) for .constdata
    interrupt.o(i.IntPriorityMaskGet) refers to cpu.o(.emb_text) for CPUbasepriGet
    interrupt.o(i.IntPriorityMaskSet) refers to cpu.o(.emb_text) for CPUbasepriSet
    interrupt.o(i.IntPrioritySet) refers to interrupt.o(.constdata) for .constdata
    interrupt.o(i.IntRegister) refers to interrupt.o(vtable) for vtable
    interrupt.o(i.IntUnregister) refers to interrupt.o(i._IntDefaultHandler) for _IntDefaultHandler
    interrupt.o(i.IntUnregister) refers to interrupt.o(vtable) for vtable
    sysctl.o(i.SysCtlClockFreqSet) refers to sysctl.o(.constdata) for .constdata
    sysctl.o(i.SysCtlClockGet) refers to sysctl.o(.constdata) for .constdata
    sysctl.o(i.SysCtlClockSet) refers to sysctl.o(.emb_text) for SysCtlDelay
    sysctl.o(i.SysCtlDeepSleep) refers to cpu.o(.emb_text) for CPUwfi
    sysctl.o(i.SysCtlIntRegister) refers to interrupt.o(i.IntRegister) for IntRegister
    sysctl.o(i.SysCtlIntRegister) refers to interrupt.o(i.IntEnable) for IntEnable
    sysctl.o(i.SysCtlIntUnregister) refers to interrupt.o(i.IntDisable) for IntDisable
    sysctl.o(i.SysCtlIntUnregister) refers to interrupt.o(i.IntUnregister) for IntUnregister
    sysctl.o(i.SysCtlSleep) refers to cpu.o(.emb_text) for CPUwfi
    systick.o(i.SysTickIntRegister) refers to interrupt.o(i.IntRegister) for IntRegister
    systick.o(i.SysTickIntUnregister) refers to interrupt.o(i.IntUnregister) for IntUnregister
    uart.o(i.UARTIntRegister) refers to interrupt.o(i.IntRegister) for IntRegister
    uart.o(i.UARTIntRegister) refers to interrupt.o(i.IntEnable) for IntEnable
    uart.o(i.UARTIntRegister) refers to uart.o(.constdata) for .constdata
    uart.o(i.UARTIntUnregister) refers to interrupt.o(i.IntDisable) for IntDisable
    uart.o(i.UARTIntUnregister) refers to interrupt.o(i.IntUnregister) for IntUnregister
    uart.o(i.UARTIntUnregister) refers to uart.o(.constdata) for .constdata
    toupper.o(.text) refers to rt_ctype_table.o(.text) for __rt_ctype_table
    __2printf.o(.text) refers to _printf_char_file.o(.text) for _printf_char_file
    __2printf.o(.text) refers to retarget.o(.data) for __stdout
    noretval__2printf.o(.text) refers to _printf_char_file.o(.text) for _printf_char_file
    noretval__2printf.o(.text) refers to retarget.o(.data) for __stdout
    __printf.o(.text) refers to _printf_percent.o(.ARM.Collect$$_printf_percent$$00000000) for _printf_percent
    _printf_str.o(.text) refers (Special) to _printf_char.o(.text) for _printf_cs_common
    _printf_str.o(.text) refers (Weak) to _printf_pad.o(.text) for _printf_pre_padding
    _printf_str.o(.text) refers (Weak) to _printf_pad.o(.text) for _printf_post_padding
    _printf_dec.o(.text) refers to _printf_intcommon.o(.text) for _printf_int_common
    _printf_hex_ll.o(.text) refers to _printf_intcommon.o(.text) for _printf_int_common
    _printf_hex_ll.o(.text) refers to _printf_hex_ll.o(.constdata) for .constdata
    _printf_hex_int.o(.text) refers to _printf_intcommon.o(.text) for _printf_int_common
    _printf_hex_int.o(.text) refers to _printf_hex_int.o(.constdata) for .constdata
    _printf_hex_int_ll.o(.text) refers to _printf_intcommon.o(.text) for _printf_int_common
    _printf_hex_int_ll.o(.text) refers to _printf_hex_int_ll.o(.constdata) for .constdata
    _printf_hex_ptr.o(.text) refers to _printf_intcommon.o(.text) for _printf_int_common
    _printf_hex_ptr.o(.text) refers to _printf_hex_ptr.o(.constdata) for .constdata
    _printf_hex_int_ptr.o(.text) refers to _printf_intcommon.o(.text) for _printf_int_common
    _printf_hex_int_ptr.o(.text) refers to _printf_hex_int_ptr.o(.constdata) for .constdata
    _printf_hex_ll_ptr.o(.text) refers to _printf_intcommon.o(.text) for _printf_int_common
    _printf_hex_ll_ptr.o(.text) refers to _printf_hex_ll_ptr.o(.constdata) for .constdata
    _printf_hex_int_ll_ptr.o(.text) refers to _printf_intcommon.o(.text) for _printf_int_common
    _printf_hex_int_ll_ptr.o(.text) refers to _printf_hex_int_ll_ptr.o(.constdata) for .constdata
    __printf_flags.o(.text) refers to _printf_percent.o(.ARM.Collect$$_printf_percent$$00000000) for _printf_percent
    __printf_flags.o(.text) refers to __printf_flags.o(.constdata) for .constdata
    __printf_ss.o(.text) refers to _printf_percent.o(.ARM.Collect$$_printf_percent$$00000000) for _printf_percent
    __printf_flags_ss.o(.text) refers to _printf_percent.o(.ARM.Collect$$_printf_percent$$00000000) for _printf_percent
    __printf_flags_ss.o(.text) refers to __printf_flags_ss.o(.constdata) for .constdata
    __printf_wp.o(.text) refers to __printf_wp.o(i._is_digit) for _is_digit
    __printf_wp.o(.text) refers to _printf_percent.o(.ARM.Collect$$_printf_percent$$00000000) for _printf_percent
    __printf_flags_wp.o(.text) refers to __printf_wp.o(i._is_digit) for _is_digit
    __printf_flags_wp.o(.text) refers to _printf_percent.o(.ARM.Collect$$_printf_percent$$00000000) for _printf_percent
    __printf_flags_wp.o(.text) refers to __printf_flags_wp.o(.constdata) for .constdata
    __printf_ss_wp.o(.text) refers to __printf_wp.o(i._is_digit) for _is_digit
    __printf_ss_wp.o(.text) refers to _printf_percent.o(.ARM.Collect$$_printf_percent$$00000000) for _printf_percent
    __printf_flags_ss_wp.o(.text) refers to __printf_wp.o(i._is_digit) for _is_digit
    __printf_flags_ss_wp.o(.text) refers to _printf_percent.o(.ARM.Collect$$_printf_percent$$00000000) for _printf_percent
    __printf_flags_ss_wp.o(.text) refers to __printf_flags_ss_wp.o(.constdata) for .constdata
    _printf_c.o(.ARM.Collect$$_printf_percent$$00000013) refers (Weak) to _printf_char.o(.text) for _printf_char
    _printf_s.o(.ARM.Collect$$_printf_percent$$00000014) refers (Weak) to _printf_char.o(.text) for _printf_string
    _printf_x.o(.ARM.Collect$$_printf_percent$$0000000C) refers (Weak) to _printf_hex_int.o(.text) for _printf_int_hex
    _printf_d.o(.ARM.Collect$$_printf_percent$$00000009) refers (Weak) to _printf_dec.o(.text) for _printf_int_dec
    _printf_percent.o(.ARM.Collect$$_printf_percent$$00000000) refers (Special) to _printf_percent_end.o(.ARM.Collect$$_printf_percent$$00000017) for _printf_percent_end
    getc.o(.text) refers to retarget.o(i.fgetc) for fgetc
    puts.o(.text) refers to retarget.o(i.fputc) for fputc
    puts.o(.text) refers to retarget.o(.data) for __stdout
    __main.o(!!!main) refers to __rtentry.o(.ARM.Collect$$rtentry$$00000000) for __rt_entry
    d2f.o(x$fpl$d2f) refers (Special) to usenofp.o(x$fpl$usenofp) for __I$use$fp
    d2f.o(x$fpl$d2f) refers to fretinf.o(x$fpl$fretinf) for __fpl_fretinf
    d2f.o(x$fpl$d2f) refers to dnaninf.o(x$fpl$dnaninf) for __fpl_dnaninf
    daddsub_clz.o(x$fpl$dadd) refers (Special) to usenofp.o(x$fpl$usenofp) for __I$use$fp
    daddsub_clz.o(x$fpl$dadd) refers to daddsub_clz.o(x$fpl$dsub) for _dsub1
    daddsub_clz.o(x$fpl$dadd) refers to dretinf.o(x$fpl$dretinf) for __fpl_dretinf
    daddsub_clz.o(x$fpl$dadd) refers to dnaninf.o(x$fpl$dnaninf) for __fpl_dnaninf
    daddsub_clz.o(x$fpl$drsb) refers (Special) to usenofp.o(x$fpl$usenofp) for __I$use$fp
    daddsub_clz.o(x$fpl$drsb) refers to daddsub_clz.o(x$fpl$dadd) for _dadd1
    daddsub_clz.o(x$fpl$drsb) refers to daddsub_clz.o(x$fpl$dsub) for _dsub1
    daddsub_clz.o(x$fpl$dsub) refers (Special) to usenofp.o(x$fpl$usenofp) for __I$use$fp
    daddsub_clz.o(x$fpl$dsub) refers to daddsub_clz.o(x$fpl$dadd) for _dadd1
    daddsub_clz.o(x$fpl$dsub) refers to dnaninf.o(x$fpl$dnaninf) for __fpl_dnaninf
    dflt_clz.o(x$fpl$dfltu) refers (Special) to usenofp.o(x$fpl$usenofp) for __I$use$fp
    dflt_clz.o(x$fpl$dflt) refers (Special) to usenofp.o(x$fpl$usenofp) for __I$use$fp
    dflt_clz.o(x$fpl$dfltn) refers (Special) to usenofp.o(x$fpl$usenofp) for __I$use$fp
    dmul.o(x$fpl$dmul) refers (Special) to usenofp.o(x$fpl$usenofp) for __I$use$fp
    dmul.o(x$fpl$dmul) refers to dretinf.o(x$fpl$dretinf) for __fpl_dretinf
    dmul.o(x$fpl$dmul) refers to dnaninf.o(x$fpl$dnaninf) for __fpl_dnaninf
    f2d.o(x$fpl$f2d) refers (Special) to usenofp.o(x$fpl$usenofp) for __I$use$fp
    f2d.o(x$fpl$f2d) refers to fnaninf.o(x$fpl$fnaninf) for __fpl_fnaninf
    f2d.o(x$fpl$f2d) refers to dretinf.o(x$fpl$dretinf) for __fpl_dretinf
    __rtentry.o(.ARM.Collect$$rtentry$$00000000) refers (Special) to __rtentry2.o(.ARM.Collect$$rtentry$$0000000A) for __rt_entry_li
    __rtentry.o(.ARM.Collect$$rtentry$$00000000) refers (Special) to __rtentry2.o(.ARM.Collect$$rtentry$$0000000D) for __rt_entry_main
    __rtentry.o(.ARM.Collect$$rtentry$$00000000) refers (Special) to __rtentry2.o(.ARM.Collect$$rtentry$$0000000C) for __rt_entry_postli_1
    __rtentry.o(.ARM.Collect$$rtentry$$00000000) refers (Special) to __rtentry2.o(.ARM.Collect$$rtentry$$00000009) for __rt_entry_postsh_1
    __rtentry.o(.ARM.Collect$$rtentry$$00000000) refers (Special) to __rtentry2.o(.ARM.Collect$$rtentry$$00000002) for __rt_entry_presh_1
    __rtentry.o(.ARM.Collect$$rtentry$$00000000) refers (Special) to __rtentry4.o(.ARM.Collect$$rtentry$$00000004) for __rt_entry_sh
    rt_ctype_table.o(.text) refers to rt_locale_intlibspace.o(.text) for __rt_locale
    rt_ctype_table.o(.text) refers to lc_ctype_c.o(locale$$code) for _get_lc_ctype
    _printf_intcommon.o(.text) refers (Weak) to _printf_pad.o(.text) for _printf_pre_padding
    _printf_intcommon.o(.text) refers (Weak) to _printf_pad.o(.text) for _printf_pre_padding
    _printf_intcommon.o(.text) refers (Weak) to _printf_pad.o(.text) for _printf_post_padding
    _printf_char.o(.text) refers (Weak) to _printf_str.o(.text) for _printf_str
    _printf_char_file.o(.text) refers to _printf_char_common.o(.text) for _printf_char_common
    _printf_char_file.o(.text) refers to retarget.o(i.ferror) for ferror
    _printf_char_file.o(.text) refers to retarget.o(i.fputc) for fputc
    dnaninf.o(x$fpl$dnaninf) refers (Special) to usenofp.o(x$fpl$usenofp) for __I$use$fp
    dretinf.o(x$fpl$dretinf) refers (Special) to usenofp.o(x$fpl$usenofp) for __I$use$fp
    fnaninf.o(x$fpl$fnaninf) refers (Special) to usenofp.o(x$fpl$usenofp) for __I$use$fp
    fretinf.o(x$fpl$fretinf) refers (Special) to usenofp.o(x$fpl$usenofp) for __I$use$fp
    __rtentry2.o(.ARM.Collect$$rtentry$$00000008) refers to boardinit2.o(.text) for _platform_post_stackheap_init
    __rtentry2.o(.ARM.Collect$$rtentry$$0000000A) refers to libinit.o(.ARM.Collect$$libinit$$00000000) for __rt_lib_init
    __rtentry2.o(.ARM.Collect$$rtentry$$0000000B) refers to boardinit3.o(.text) for _platform_post_lib_init
    __rtentry2.o(.ARM.Collect$$rtentry$$0000000D) refers to hsmtemplatemain.o(i.main) for main
    __rtentry2.o(.ARM.Collect$$rtentry$$0000000D) refers to exit.o(.text) for exit
    __rtentry2.o(.ARM.exidx) refers to __rtentry2.o(.ARM.Collect$$rtentry$$00000001) for .ARM.Collect$$rtentry$$00000001
    __rtentry2.o(.ARM.exidx) refers to __rtentry2.o(.ARM.Collect$$rtentry$$00000008) for .ARM.Collect$$rtentry$$00000008
    __rtentry2.o(.ARM.exidx) refers to __rtentry2.o(.ARM.Collect$$rtentry$$0000000A) for .ARM.Collect$$rtentry$$0000000A
    __rtentry2.o(.ARM.exidx) refers to __rtentry2.o(.ARM.Collect$$rtentry$$0000000B) for .ARM.Collect$$rtentry$$0000000B
    __rtentry2.o(.ARM.exidx) refers to __rtentry2.o(.ARM.Collect$$rtentry$$0000000D) for .ARM.Collect$$rtentry$$0000000D
    __rtentry4.o(.ARM.Collect$$rtentry$$00000004) refers to sys_stackheap_outer.o(.text) for __user_setup_stackheap
    __rtentry4.o(.ARM.exidx) refers to __rtentry4.o(.ARM.Collect$$rtentry$$00000004) for .ARM.Collect$$rtentry$$00000004
    rt_locale.o(.text) refers to rt_locale.o(.bss) for __rt_locale_data
    rt_locale_intlibspace.o(.text) refers to libspace.o(.bss) for __libspace_start
    _printf_char_common.o(.text) refers to __printf_flags_wp.o(.text) for __printf
    lc_ctype_c.o(locale$$data) refers (Special) to libinit2.o(.ARM.Collect$$libinit$$00000012) for __rt_lib_init_lc_ctype_2
    lc_ctype_c.o(locale$$code) refers (Special) to libinit2.o(.ARM.Collect$$libinit$$00000012) for __rt_lib_init_lc_ctype_2
    lc_ctype_c.o(locale$$code) refers to strcmpv7m.o(.text) for strcmp
    lc_ctype_c.o(locale$$code) refers to lc_ctype_c.o(locale$$data) for __lcctype_c_name
    libspace.o(.text) refers to libspace.o(.bss) for __libspace_start
    sys_stackheap_outer.o(.text) refers to libspace.o(.text) for __user_perproc_libspace
    sys_stackheap_outer.o(.text) refers to startup_rvmdk.o(.text) for __user_initial_stackheap
    exit.o(.text) refers to rtexit.o(.ARM.Collect$$rtexit$$00000000) for __rt_exit
    libinit.o(.ARM.Collect$$libinit$$00000000) refers (Special) to libinit2.o(.ARM.Collect$$libinit$$0000002E) for __rt_lib_init_alloca_1
    libinit.o(.ARM.Collect$$libinit$$00000000) refers (Special) to libinit2.o(.ARM.Collect$$libinit$$0000002C) for __rt_lib_init_argv_1
    libinit.o(.ARM.Collect$$libinit$$00000000) refers (Special) to libinit2.o(.ARM.Collect$$libinit$$0000001B) for __rt_lib_init_atexit_1
    libinit.o(.ARM.Collect$$libinit$$00000000) refers (Special) to libinit2.o(.ARM.Collect$$libinit$$00000021) for __rt_lib_init_clock_1
    libinit.o(.ARM.Collect$$libinit$$00000000) refers (Special) to libinit2.o(.ARM.Collect$$libinit$$00000032) for __rt_lib_init_cpp_1
    libinit.o(.ARM.Collect$$libinit$$00000000) refers (Special) to libinit2.o(.ARM.Collect$$libinit$$00000030) for __rt_lib_init_exceptions_1
    libinit.o(.ARM.Collect$$libinit$$00000000) refers (Special) to libinit2.o(.ARM.Collect$$libinit$$00000001) for __rt_lib_init_fp_1
    libinit.o(.ARM.Collect$$libinit$$00000000) refers (Special) to libinit2.o(.ARM.Collect$$libinit$$0000001F) for __rt_lib_init_fp_trap_1
    libinit.o(.ARM.Collect$$libinit$$00000000) refers (Special) to libinit2.o(.ARM.Collect$$libinit$$00000023) for __rt_lib_init_getenv_1
    libinit.o(.ARM.Collect$$libinit$$00000000) refers (Special) to libinit2.o(.ARM.Collect$$libinit$$0000000A) for __rt_lib_init_heap_1
    libinit.o(.ARM.Collect$$libinit$$00000000) refers (Special) to libinit2.o(.ARM.Collect$$libinit$$00000011) for __rt_lib_init_lc_collate_1
    libinit.o(.ARM.Collect$$libinit$$00000000) refers (Special) to libinit2.o(.ARM.Collect$$libinit$$00000013) for __rt_lib_init_lc_ctype_1
    libinit.o(.ARM.Collect$$libinit$$00000000) refers (Special) to libinit2.o(.ARM.Collect$$libinit$$00000015) for __rt_lib_init_lc_monetary_1
    libinit.o(.ARM.Collect$$libinit$$00000000) refers (Special) to libinit2.o(.ARM.Collect$$libinit$$00000017) for __rt_lib_init_lc_numeric_1
    libinit.o(.ARM.Collect$$libinit$$00000000) refers (Special) to libinit2.o(.ARM.Collect$$libinit$$00000019) for __rt_lib_init_lc_time_1
    libinit.o(.ARM.Collect$$libinit$$00000000) refers (Special) to libinit2.o(.ARM.Collect$$libinit$$00000004) for __rt_lib_init_preinit_1
    libinit.o(.ARM.Collect$$libinit$$00000000) refers (Special) to libinit2.o(.ARM.Collect$$libinit$$0000000E) for __rt_lib_init_rand_1
    libinit.o(.ARM.Collect$$libinit$$00000000) refers (Special) to libinit2.o(.ARM.Collect$$libinit$$00000033) for __rt_lib_init_return
    libinit.o(.ARM.Collect$$libinit$$00000000) refers (Special) to libinit2.o(.ARM.Collect$$libinit$$0000001D) for __rt_lib_init_signal_1
    libinit.o(.ARM.Collect$$libinit$$00000000) refers (Special) to libinit2.o(.ARM.Collect$$libinit$$00000025) for __rt_lib_init_stdio_1
    libinit.o(.ARM.Collect$$libinit$$00000000) refers (Special) to libinit2.o(.ARM.Collect$$libinit$$0000000C) for __rt_lib_init_user_alloc_1
    libinit2.o(.ARM.Collect$$libinit$$00000001) refers to fpinit.o(x$fpl$fpinit) for _fp_init
    libinit2.o(.ARM.Collect$$libinit$$0000000F) refers (Weak) to rt_locale_intlibspace.o(.text) for __rt_locale
    libinit2.o(.ARM.Collect$$libinit$$00000010) refers to libinit2.o(.ARM.Collect$$libinit$$0000000F) for .ARM.Collect$$libinit$$0000000F
    libinit2.o(.ARM.Collect$$libinit$$00000012) refers to libinit2.o(.ARM.Collect$$libinit$$0000000F) for .ARM.Collect$$libinit$$0000000F
    libinit2.o(.ARM.Collect$$libinit$$00000012) refers (Weak) to lc_ctype_c.o(locale$$code) for _get_lc_ctype
    libinit2.o(.ARM.Collect$$libinit$$00000014) refers to libinit2.o(.ARM.Collect$$libinit$$0000000F) for .ARM.Collect$$libinit$$0000000F
    libinit2.o(.ARM.Collect$$libinit$$00000016) refers to libinit2.o(.ARM.Collect$$libinit$$0000000F) for .ARM.Collect$$libinit$$0000000F
    libinit2.o(.ARM.Collect$$libinit$$00000018) refers to libinit2.o(.ARM.Collect$$libinit$$0000000F) for .ARM.Collect$$libinit$$0000000F
    libinit2.o(.ARM.Collect$$libinit$$00000026) refers to argv_veneer.o(.emb_text) for __ARM_argv_veneer
    libinit2.o(.ARM.Collect$$libinit$$00000027) refers to argv_veneer.o(.emb_text) for __ARM_argv_veneer
    rtexit.o(.ARM.Collect$$rtexit$$00000000) refers (Special) to rtexit2.o(.ARM.Collect$$rtexit$$00000004) for __rt_exit_exit
    rtexit.o(.ARM.Collect$$rtexit$$00000000) refers (Special) to rtexit2.o(.ARM.Collect$$rtexit$$00000003) for __rt_exit_ls
    rtexit.o(.ARM.Collect$$rtexit$$00000000) refers (Special) to rtexit2.o(.ARM.Collect$$rtexit$$00000002) for __rt_exit_prels_1
    rtexit.o(.ARM.exidx) refers (Special) to rtexit2.o(.ARM.Collect$$rtexit$$00000004) for __rt_exit_exit
    rtexit.o(.ARM.exidx) refers (Special) to rtexit2.o(.ARM.Collect$$rtexit$$00000003) for __rt_exit_ls
    rtexit.o(.ARM.exidx) refers (Special) to rtexit2.o(.ARM.Collect$$rtexit$$00000002) for __rt_exit_prels_1
    rtexit.o(.ARM.exidx) refers to rtexit.o(.ARM.Collect$$rtexit$$00000000) for .ARM.Collect$$rtexit$$00000000
    argv_veneer.o(.emb_text) refers to no_argv.o(.text) for __ARM_get_argv
    rtexit2.o(.ARM.Collect$$rtexit$$00000003) refers to libshutdown.o(.ARM.Collect$$libshutdown$$00000000) for __rt_lib_shutdown
    rtexit2.o(.ARM.Collect$$rtexit$$00000004) refers to retarget.o(i._sys_exit) for _sys_exit
    rtexit2.o(.ARM.exidx) refers to rtexit2.o(.ARM.Collect$$rtexit$$00000001) for .ARM.Collect$$rtexit$$00000001
    rtexit2.o(.ARM.exidx) refers to rtexit2.o(.ARM.Collect$$rtexit$$00000003) for .ARM.Collect$$rtexit$$00000003
    rtexit2.o(.ARM.exidx) refers to rtexit2.o(.ARM.Collect$$rtexit$$00000004) for .ARM.Collect$$rtexit$$00000004
    _get_argv_nomalloc.o(.text) refers (Special) to hrguard.o(.text) for __heap_region$guard
    _get_argv_nomalloc.o(.text) refers to defsig_rtmem_outer.o(.text) for __rt_SIGRTMEM
    _get_argv_nomalloc.o(.text) refers to sys_command.o(.text) for _sys_command_string
    sys_command.o(.text) refers (Special) to use_no_semi.o(.text) for __I$use$semihosting
    sys_command.o(.text) refers (Special) to indicate_semi.o(.text) for __semihosting_library_function
    defsig_rtmem_outer.o(.text) refers to defsig_rtmem_inner.o(.text) for __rt_SIGRTMEM_inner
    defsig_rtmem_outer.o(.text) refers to defsig_exit.o(.text) for __sig_exit
    defsig_rtmem_formal.o(.text) refers to rt_raise.o(.text) for __rt_raise
    libshutdown.o(.ARM.Collect$$libshutdown$$00000000) refers (Special) to libshutdown2.o(.ARM.Collect$$libshutdown$$00000002) for __rt_lib_shutdown_cpp_1
    libshutdown.o(.ARM.Collect$$libshutdown$$00000000) refers (Special) to libshutdown2.o(.ARM.Collect$$libshutdown$$00000007) for __rt_lib_shutdown_fp_trap_1
    libshutdown.o(.ARM.Collect$$libshutdown$$00000000) refers (Special) to libshutdown2.o(.ARM.Collect$$libshutdown$$0000000F) for __rt_lib_shutdown_heap_1
    libshutdown.o(.ARM.Collect$$libshutdown$$00000000) refers (Special) to libshutdown2.o(.ARM.Collect$$libshutdown$$00000010) for __rt_lib_shutdown_return
    libshutdown.o(.ARM.Collect$$libshutdown$$00000000) refers (Special) to libshutdown2.o(.ARM.Collect$$libshutdown$$0000000A) for __rt_lib_shutdown_signal_1
    libshutdown.o(.ARM.Collect$$libshutdown$$00000000) refers (Special) to libshutdown2.o(.ARM.Collect$$libshutdown$$00000004) for __rt_lib_shutdown_stdio_1
    libshutdown.o(.ARM.Collect$$libshutdown$$00000000) refers (Special) to libshutdown2.o(.ARM.Collect$$libshutdown$$0000000C) for __rt_lib_shutdown_user_alloc_1
    rt_raise.o(.text) refers to __raise.o(.text) for __raise
    rt_raise.o(.text) refers to retarget.o(i._sys_exit) for _sys_exit
    defsig_exit.o(.text) refers to retarget.o(i._sys_exit) for _sys_exit
    defsig_rtmem_inner.o(.text) refers to defsig_general.o(.text) for __default_signal_display
    __raise.o(.text) refers to defsig.o(CL$$defsig) for __default_signal_handler
    defsig_general.o(.text) refers to retarget.o(i._ttywrch) for _ttywrch
    defsig.o(CL$$defsig) refers to defsig_rtmem_inner.o(.text) for __rt_SIGRTMEM_inner
    defsig_abrt_inner.o(.text) refers to defsig_general.o(.text) for __default_signal_display
    defsig_fpe_inner.o(.text) refers to defsig_general.o(.text) for __default_signal_display
    defsig_rtred_inner.o(.text) refers to defsig_general.o(.text) for __default_signal_display
    defsig_stak_inner.o(.text) refers to defsig_general.o(.text) for __default_signal_display
    defsig_pvfn_inner.o(.text) refers to defsig_general.o(.text) for __default_signal_display
    defsig_cppl_inner.o(.text) refers to defsig_general.o(.text) for __default_signal_display
    defsig_segv_inner.o(.text) refers to defsig_general.o(.text) for __default_signal_display
    defsig_other.o(.text) refers to defsig_general.o(.text) for __default_signal_display


==============================================================================

Removing Unused input sections from the image.

    Removing citysensorhw.o(i.GetActualCityPeriodUS), (20 bytes).
    Removing irsensorhw.o(i.GetIRFreq), (20 bytes).
    Removing irsensorhw.o(i.GetIRPeriod), (12 bytes).
    Removing linesensorshw.o(i.Check4FrontOnBlackLine), (56 bytes).
    Removing linesensorshw.o(i.ClearOffLineCounter), (12 bytes).
    Removing mastersm.o(.constdata), (4 bytes).
    Removing project_motorservice.o(i.SetMotorRPM), (12 bytes).
    Removing project_motorservice.o(i.subroutine), (220 bytes).
    Removing periodiceventcheckerservice.o(i.GetSwitchStatus), (12 bytes).
    Removing pwmservo.o(i.CloseFeedGate), (6 bytes).
    Removing pwmservo.o(i.InitServoPWM), (172 bytes).
    Removing pwmservo.o(i.OpenFeedGate), (6 bytes).
    Removing pwmservo.o(i.ServoSetDutyCycle), (64 bytes).
    Removing es_deferrecall.o(i.ES_RecallEvents), (44 bytes).
    Removing es_framework.o(i.ES_PostAll), (72 bytes).
    Removing es_framework.o(i.ES_PostToServiceLIFO), (56 bytes).
    Removing es_port.o(i.ConsoleInit), (80 bytes).
    Removing es_postlist.o(i.ES_PostList00), (16 bytes).
    Removing es_queue.o(i.ES_EnQueueLIFO), (72 bytes).
    Removing es_queue.o(i.ES_IsQueueEmpty), (12 bytes).
    Removing es_timers.o(i.ES_Timer_SetTimer), (40 bytes).
    Removing es_timers.o(i.ES_Timer_StartTimer), (48 bytes).
    Removing retarget.o(i._ttywrch), (6 bytes).
    Removing uartstdio.o(i.UARTgets), (132 bytes).
    Removing uartstdio.o(i.UARTprintf), (18 bytes).
    Removing uartstdio.o(i.UARTvprintf), (436 bytes).
    Removing uartstdio.o(i.UARTwrite), (60 bytes).
    Removing gpio.o(i.GPIOADCTriggerDisable), (14 bytes).
    Removing gpio.o(i.GPIOADCTriggerEnable), (12 bytes).
    Removing gpio.o(i.GPIODMATriggerDisable), (14 bytes).
    Removing gpio.o(i.GPIODMATriggerEnable), (12 bytes).
    Removing gpio.o(i.GPIODirModeGet), (34 bytes).
    Removing gpio.o(i.GPIOIntClear), (6 bytes).
    Removing gpio.o(i.GPIOIntDisable), (14 bytes).
    Removing gpio.o(i.GPIOIntEnable), (12 bytes).
    Removing gpio.o(i.GPIOIntRegister), (88 bytes).
    Removing gpio.o(i.GPIOIntStatus), (14 bytes).
    Removing gpio.o(i.GPIOIntTypeGet), (68 bytes).
    Removing gpio.o(i.GPIOIntTypeSet), (80 bytes).
    Removing gpio.o(i.GPIOIntUnregister), (88 bytes).
    Removing gpio.o(i.GPIOPadConfigGet), (204 bytes).
    Removing gpio.o(i.GPIOPinRead), (6 bytes).
    Removing gpio.o(i.GPIOPinTypeADC), (28 bytes).
    Removing gpio.o(i.GPIOPinTypeCAN), (28 bytes).
    Removing gpio.o(i.GPIOPinTypeComparator), (28 bytes).
    Removing gpio.o(i.GPIOPinTypeComparatorOutput), (28 bytes).
    Removing gpio.o(i.GPIOPinTypeDIVSCLK), (28 bytes).
    Removing gpio.o(i.GPIOPinTypeEPI), (28 bytes).
    Removing gpio.o(i.GPIOPinTypeEthernetLED), (28 bytes).
    Removing gpio.o(i.GPIOPinTypeEthernetMII), (28 bytes).
    Removing gpio.o(i.GPIOPinTypeGPIOOutput), (28 bytes).
    Removing gpio.o(i.GPIOPinTypeGPIOOutputOD), (28 bytes).
    Removing gpio.o(i.GPIOPinTypeHibernateRTCCLK), (28 bytes).
    Removing gpio.o(i.GPIOPinTypeI2C), (28 bytes).
    Removing gpio.o(i.GPIOPinTypeI2CSCL), (28 bytes).
    Removing gpio.o(i.GPIOPinTypeLCD), (28 bytes).
    Removing gpio.o(i.GPIOPinTypeOneWire), (28 bytes).
    Removing gpio.o(i.GPIOPinTypePWM), (28 bytes).
    Removing gpio.o(i.GPIOPinTypeQEI), (28 bytes).
    Removing gpio.o(i.GPIOPinTypeSSI), (28 bytes).
    Removing gpio.o(i.GPIOPinTypeTimer), (28 bytes).
    Removing gpio.o(i.GPIOPinTypeTrace), (28 bytes).
    Removing gpio.o(i.GPIOPinTypeUSBAnalog), (28 bytes).
    Removing gpio.o(i.GPIOPinTypeUSBDigital), (28 bytes).
    Removing gpio.o(i.GPIOPinTypeWakeHigh), (30 bytes).
    Removing gpio.o(i.GPIOPinTypeWakeLow), (30 bytes).
    Removing gpio.o(i.GPIOPinWakeStatus), (6 bytes).
    Removing gpio.o(i.GPIOPinWrite), (6 bytes).
    Removing interrupt.o(i.IntDisable), (100 bytes).
    Removing interrupt.o(i.IntEnable), (100 bytes).
    Removing interrupt.o(i.IntIsEnabled), (96 bytes).
    Removing interrupt.o(i.IntMasterDisable), (14 bytes).
    Removing interrupt.o(i.IntPendClear), (68 bytes).
    Removing interrupt.o(i.IntPendSet), (84 bytes).
    Removing interrupt.o(i.IntPriorityGet), (28 bytes).
    Removing interrupt.o(i.IntPriorityGroupingGet), (36 bytes).
    Removing interrupt.o(i.IntPriorityGroupingSet), (28 bytes).
    Removing interrupt.o(i.IntPriorityMaskGet), (4 bytes).
    Removing interrupt.o(i.IntPriorityMaskSet), (4 bytes).
    Removing interrupt.o(i.IntPrioritySet), (40 bytes).
    Removing interrupt.o(i.IntRegister), (52 bytes).
    Removing interrupt.o(i.IntTrigger), (12 bytes).
    Removing interrupt.o(i.IntUnregister), (20 bytes).
    Removing interrupt.o(i._IntDefaultHandler), (2 bytes).
    Removing interrupt.o(.constdata), (268 bytes).
    Removing interrupt.o(vtable), (620 bytes).
    Removing sysctl.o(i.SysCtlAltClkConfig), (12 bytes).
    Removing sysctl.o(i.SysCtlClockFreqSet), (712 bytes).
    Removing sysctl.o(i.SysCtlClockGet), (340 bytes).
    Removing sysctl.o(i.SysCtlClockOutConfig), (20 bytes).
    Removing sysctl.o(i.SysCtlDeepSleep), (32 bytes).
    Removing sysctl.o(i.SysCtlDeepSleepClockConfigSet), (112 bytes).
    Removing sysctl.o(i.SysCtlDeepSleepClockSet), (12 bytes).
    Removing sysctl.o(i.SysCtlDeepSleepPowerSet), (12 bytes).
    Removing sysctl.o(i.SysCtlFlashSectorSizeGet), (56 bytes).
    Removing sysctl.o(i.SysCtlFlashSizeGet), (56 bytes).
    Removing sysctl.o(i.SysCtlGPIOAHBDisable), (28 bytes).
    Removing sysctl.o(i.SysCtlGPIOAHBEnable), (24 bytes).
    Removing sysctl.o(i.SysCtlIntClear), (12 bytes).
    Removing sysctl.o(i.SysCtlIntDisable), (16 bytes).
    Removing sysctl.o(i.SysCtlIntEnable), (16 bytes).
    Removing sysctl.o(i.SysCtlIntRegister), (20 bytes).
    Removing sysctl.o(i.SysCtlIntStatus), (16 bytes).
    Removing sysctl.o(i.SysCtlIntUnregister), (18 bytes).
    Removing sysctl.o(i.SysCtlLDODeepSleepGet), (12 bytes).
    Removing sysctl.o(i.SysCtlLDODeepSleepSet), (12 bytes).
    Removing sysctl.o(i.SysCtlLDOSleepGet), (12 bytes).
    Removing sysctl.o(i.SysCtlLDOSleepSet), (12 bytes).
    Removing sysctl.o(i.SysCtlMOSCConfigSet), (12 bytes).
    Removing sysctl.o(i.SysCtlNMIClear), (16 bytes).
    Removing sysctl.o(i.SysCtlNMIStatus), (12 bytes).
    Removing sysctl.o(i.SysCtlPIOSCCalibrate), (76 bytes).
    Removing sysctl.o(i.SysCtlPWMClockGet), (24 bytes).
    Removing sysctl.o(i.SysCtlPWMClockSet), (20 bytes).
    Removing sysctl.o(i.SysCtlPeripheralClockGating), (68 bytes).
    Removing sysctl.o(i.SysCtlPeripheralDeepSleepDisable), (40 bytes).
    Removing sysctl.o(i.SysCtlPeripheralDeepSleepEnable), (40 bytes).
    Removing sysctl.o(i.SysCtlPeripheralDisable), (40 bytes).
    Removing sysctl.o(i.SysCtlPeripheralPowerOff), (40 bytes).
    Removing sysctl.o(i.SysCtlPeripheralPowerOn), (40 bytes).
    Removing sysctl.o(i.SysCtlPeripheralPresent), (44 bytes).
    Removing sysctl.o(i.SysCtlPeripheralReady), (44 bytes).
    Removing sysctl.o(i.SysCtlPeripheralReset), (60 bytes).
    Removing sysctl.o(i.SysCtlPeripheralSleepDisable), (40 bytes).
    Removing sysctl.o(i.SysCtlPeripheralSleepEnable), (40 bytes).
    Removing sysctl.o(i.SysCtlReset), (16 bytes).
    Removing sysctl.o(i.SysCtlResetBehaviorGet), (12 bytes).
    Removing sysctl.o(i.SysCtlResetBehaviorSet), (12 bytes).
    Removing sysctl.o(i.SysCtlResetCauseClear), (16 bytes).
    Removing sysctl.o(i.SysCtlResetCauseGet), (12 bytes).
    Removing sysctl.o(i.SysCtlSRAMSizeGet), (16 bytes).
    Removing sysctl.o(i.SysCtlSleep), (4 bytes).
    Removing sysctl.o(i.SysCtlSleepPowerSet), (12 bytes).
    Removing sysctl.o(i.SysCtlUSBPLLDisable), (16 bytes).
    Removing sysctl.o(i.SysCtlUSBPLLEnable), (16 bytes).
    Removing sysctl.o(i.SysCtlVoltageEventClear), (16 bytes).
    Removing sysctl.o(i.SysCtlVoltageEventConfig), (12 bytes).
    Removing sysctl.o(i.SysCtlVoltageEventStatus), (12 bytes).
    Removing sysctl.o(.constdata), (452 bytes).
    Removing systick.o(i.SysTickDisable), (14 bytes).
    Removing systick.o(i.SysTickIntDisable), (14 bytes).
    Removing systick.o(i.SysTickIntRegister), (24 bytes).
    Removing systick.o(i.SysTickIntUnregister), (18 bytes).
    Removing systick.o(i.SysTickPeriodGet), (10 bytes).
    Removing systick.o(i.SysTickValueGet), (8 bytes).
    Removing uart.o(i.UART9BitAddrSend), (38 bytes).
    Removing uart.o(i.UART9BitAddrSet), (10 bytes).
    Removing uart.o(i.UART9BitDisable), (14 bytes).
    Removing uart.o(i.UART9BitEnable), (14 bytes).
    Removing uart.o(i.UARTBreakCtl), (18 bytes).
    Removing uart.o(i.UARTBusy), (8 bytes).
    Removing uart.o(i.UARTCharGet), (12 bytes).
    Removing uart.o(i.UARTCharGetNonBlocking), (16 bytes).
    Removing uart.o(i.UARTCharPutNonBlocking), (16 bytes).
    Removing uart.o(i.UARTCharsAvail), (10 bytes).
    Removing uart.o(i.UARTClockSourceGet), (6 bytes).
    Removing uart.o(i.UARTConfigGetExpClk), (46 bytes).
    Removing uart.o(i.UARTConfigSetExpClk), (110 bytes).
    Removing uart.o(i.UARTDMADisable), (10 bytes).
    Removing uart.o(i.UARTDMAEnable), (8 bytes).
    Removing uart.o(i.UARTDisable), (30 bytes).
    Removing uart.o(i.UARTDisableSIR), (10 bytes).
    Removing uart.o(i.UARTEnable), (20 bytes).
    Removing uart.o(i.UARTEnableSIR), (18 bytes).
    Removing uart.o(i.UARTFIFODisable), (10 bytes).
    Removing uart.o(i.UARTFIFOEnable), (10 bytes).
    Removing uart.o(i.UARTFIFOLevelGet), (16 bytes).
    Removing uart.o(i.UARTFIFOLevelSet), (6 bytes).
    Removing uart.o(i.UARTFlowControlGet), (8 bytes).
    Removing uart.o(i.UARTFlowControlSet), (12 bytes).
    Removing uart.o(i.UARTIntClear), (4 bytes).
    Removing uart.o(i.UARTIntDisable), (10 bytes).
    Removing uart.o(i.UARTIntEnable), (8 bytes).
    Removing uart.o(i.UARTIntRegister), (88 bytes).
    Removing uart.o(i.UARTIntStatus), (10 bytes).
    Removing uart.o(i.UARTIntUnregister), (88 bytes).
    Removing uart.o(i.UARTLoopbackEnable), (10 bytes).
    Removing uart.o(i.UARTModemControlClear), (14 bytes).
    Removing uart.o(i.UARTModemControlGet), (8 bytes).
    Removing uart.o(i.UARTModemControlSet), (12 bytes).
    Removing uart.o(i.UARTModemStatusGet), (10 bytes).
    Removing uart.o(i.UARTParityModeGet), (8 bytes).
    Removing uart.o(i.UARTParityModeSet), (12 bytes).
    Removing uart.o(i.UARTRxErrorClear), (6 bytes).
    Removing uart.o(i.UARTRxErrorGet), (8 bytes).
    Removing uart.o(i.UARTSmartCardDisable), (10 bytes).
    Removing uart.o(i.UARTSmartCardEnable), (22 bytes).
    Removing uart.o(i.UARTSpaceAvail), (10 bytes).
    Removing uart.o(i.UARTTxIntModeGet), (8 bytes).
    Removing uart.o(i.UARTTxIntModeSet), (12 bytes).
    Removing uart.o(.constdata), (128 bytes).

191 unused section(s) (total 8530 bytes) removed from the image.

==============================================================================

Image Symbol Table

    Local Symbols

    Symbol Name                              Value     Ov Type        Size  Object(Section)

    RESET                                    0x00000000   Section      648  startup_rvmdk.o(RESET)
    ../clib/angel/boardlib.s                 0x00000000   Number         0  boardshut.o ABSOLUTE
    ../clib/angel/boardlib.s                 0x00000000   Number         0  boardinit3.o ABSOLUTE
    ../clib/angel/boardlib.s                 0x00000000   Number         0  boardinit2.o ABSOLUTE
    ../clib/angel/boardlib.s                 0x00000000   Number         0  boardinit1.o ABSOLUTE
    ../clib/angel/handlers.s                 0x00000000   Number         0  __scatter_copy.o ABSOLUTE
    ../clib/angel/handlers.s                 0x00000000   Number         0  __scatter_zi.o ABSOLUTE
    ../clib/angel/kernel.s                   0x00000000   Number         0  __rtentry.o ABSOLUTE
    ../clib/angel/kernel.s                   0x00000000   Number         0  __rtentry2.o ABSOLUTE
    ../clib/angel/kernel.s                   0x00000000   Number         0  rtexit2.o ABSOLUTE
    ../clib/angel/kernel.s                   0x00000000   Number         0  __rtentry4.o ABSOLUTE
    ../clib/angel/kernel.s                   0x00000000   Number         0  rtexit.o ABSOLUTE
    ../clib/angel/rt.s                       0x00000000   Number         0  rt_ctype_table.o ABSOLUTE
    ../clib/angel/rt.s                       0x00000000   Number         0  rt_locale.o ABSOLUTE
    ../clib/angel/rt.s                       0x00000000   Number         0  rt_locale_intlibspace.o ABSOLUTE
    ../clib/angel/rt.s                       0x00000000   Number         0  rt_raise.o ABSOLUTE
    ../clib/angel/scatter.s                  0x00000000   Number         0  __scatter.o ABSOLUTE
    ../clib/angel/startup.s                  0x00000000   Number         0  __main.o ABSOLUTE
    ../clib/angel/sys.s                      0x00000000   Number         0  sys_stackheap_outer.o ABSOLUTE
    ../clib/angel/sys.s                      0x00000000   Number         0  indicate_semi.o ABSOLUTE
    ../clib/angel/sys.s                      0x00000000   Number         0  libspace.o ABSOLUTE
    ../clib/angel/sys.s                      0x00000000   Number         0  use_no_semi.o ABSOLUTE
    ../clib/angel/sysapp.c                   0x00000000   Number         0  sys_command.o ABSOLUTE
    ../clib/armsys.c                         0x00000000   Number         0  no_argv.o ABSOLUTE
    ../clib/armsys.c                         0x00000000   Number         0  _get_argv_nomalloc.o ABSOLUTE
    ../clib/armsys.c                         0x00000000   Number         0  argv_veneer.o ABSOLUTE
    ../clib/armsys.c                         0x00000000   Number         0  argv_veneer.o ABSOLUTE
    ../clib/ctype.c                          0x00000000   Number         0  toupper.o ABSOLUTE
    ../clib/heapalloc.c                      0x00000000   Number         0  hrguard.o ABSOLUTE
    ../clib/heapaux.c                        0x00000000   Number         0  heapauxi.o ABSOLUTE
    ../clib/libinit.s                        0x00000000   Number         0  libshutdown.o ABSOLUTE
    ../clib/libinit.s                        0x00000000   Number         0  libinit.o ABSOLUTE
    ../clib/libinit.s                        0x00000000   Number         0  libinit2.o ABSOLUTE
    ../clib/libinit.s                        0x00000000   Number         0  libshutdown2.o ABSOLUTE
    ../clib/locale.s                         0x00000000   Number         0  lc_ctype_c.o ABSOLUTE
    ../clib/memcpset.s                       0x00000000   Number         0  strcmpv7m.o ABSOLUTE
    ../clib/misc.s                           0x00000000   Number         0  printf_stubs.o ABSOLUTE
    ../clib/printf.c                         0x00000000   Number         0  _printf_hex_ptr.o ABSOLUTE
    ../clib/printf.c                         0x00000000   Number         0  __printf_nopercent.o ABSOLUTE
    ../clib/printf.c                         0x00000000   Number         0  __printf_flags_ss_wp.o ABSOLUTE
    ../clib/printf.c                         0x00000000   Number         0  _printf_hex_ll.o ABSOLUTE
    ../clib/printf.c                         0x00000000   Number         0  _printf_hex_int_ptr.o ABSOLUTE
    ../clib/printf.c                         0x00000000   Number         0  __printf_ss_wp.o ABSOLUTE
    ../clib/printf.c                         0x00000000   Number         0  noretval__2printf.o ABSOLUTE
    ../clib/printf.c                         0x00000000   Number         0  _printf_hex_ll_ptr.o ABSOLUTE
    ../clib/printf.c                         0x00000000   Number         0  _printf_char_common.o ABSOLUTE
    ../clib/printf.c                         0x00000000   Number         0  _printf_char_file.o ABSOLUTE
    ../clib/printf.c                         0x00000000   Number         0  __printf.o ABSOLUTE
    ../clib/printf.c                         0x00000000   Number         0  _printf_hex_int_ll_ptr.o ABSOLUTE
    ../clib/printf.c                         0x00000000   Number         0  __printf_flags_wp.o ABSOLUTE
    ../clib/printf.c                         0x00000000   Number         0  _printf_intcommon.o ABSOLUTE
    ../clib/printf.c                         0x00000000   Number         0  __printf_flags_ss.o ABSOLUTE
    ../clib/printf.c                         0x00000000   Number         0  __printf_ss.o ABSOLUTE
    ../clib/printf.c                         0x00000000   Number         0  __printf_wp.o ABSOLUTE
    ../clib/printf.c                         0x00000000   Number         0  _printf_pad.o ABSOLUTE
    ../clib/printf.c                         0x00000000   Number         0  __printf_flags.o ABSOLUTE
    ../clib/printf.c                         0x00000000   Number         0  _printf_str.o ABSOLUTE
    ../clib/printf.c                         0x00000000   Number         0  _printf_dec.o ABSOLUTE
    ../clib/printf.c                         0x00000000   Number         0  _printf_hex_int_ll.o ABSOLUTE
    ../clib/printf.c                         0x00000000   Number         0  __2printf.o ABSOLUTE
    ../clib/printf.c                         0x00000000   Number         0  _printf_hex_int.o ABSOLUTE
    ../clib/printf.c                         0x00000000   Number         0  _printf_char.o ABSOLUTE
    ../clib/printf_percent.s                 0x00000000   Number         0  _printf_percent.o ABSOLUTE
    ../clib/printf_percent.s                 0x00000000   Number         0  _printf_percent_end.o ABSOLUTE
    ../clib/printf_percent.s                 0x00000000   Number         0  _printf_x.o ABSOLUTE
    ../clib/printf_percent.s                 0x00000000   Number         0  _printf_c.o ABSOLUTE
    ../clib/printf_percent.s                 0x00000000   Number         0  _printf_s.o ABSOLUTE
    ../clib/printf_percent.s                 0x00000000   Number         0  _printf_d.o ABSOLUTE
    ../clib/signal.c                         0x00000000   Number         0  __raise.o ABSOLUTE
    ../clib/signal.c                         0x00000000   Number         0  defsig_general.o ABSOLUTE
    ../clib/signal.c                         0x00000000   Number         0  defsig_abrt_inner.o ABSOLUTE
    ../clib/signal.c                         0x00000000   Number         0  defsig_fpe_inner.o ABSOLUTE
    ../clib/signal.c                         0x00000000   Number         0  defsig_rtred_inner.o ABSOLUTE
    ../clib/signal.c                         0x00000000   Number         0  defsig_stak_inner.o ABSOLUTE
    ../clib/signal.c                         0x00000000   Number         0  defsig_cppl_inner.o ABSOLUTE
    ../clib/signal.c                         0x00000000   Number         0  defsig_other.o ABSOLUTE
    ../clib/signal.c                         0x00000000   Number         0  defsig_rtmem_outer.o ABSOLUTE
    ../clib/signal.c                         0x00000000   Number         0  defsig_segv_inner.o ABSOLUTE
    ../clib/signal.c                         0x00000000   Number         0  defsig_rtmem_formal.o ABSOLUTE
    ../clib/signal.c                         0x00000000   Number         0  defsig_rtmem_inner.o ABSOLUTE
    ../clib/signal.c                         0x00000000   Number         0  defsig_exit.o ABSOLUTE
    ../clib/signal.c                         0x00000000   Number         0  defsig_pvfn_inner.o ABSOLUTE
    ../clib/signal.s                         0x00000000   Number         0  defsig.o ABSOLUTE
    ../clib/stdio.c                          0x00000000   Number         0  puts.o ABSOLUTE
    ../clib/stdio.c                          0x00000000   Number         0  getc.o ABSOLUTE
    ../clib/stdlib.c                         0x00000000   Number         0  exit.o ABSOLUTE
    ../fplib/d2f.s                           0x00000000   Number         0  d2f.o ABSOLUTE
    ../fplib/daddsub.s                       0x00000000   Number         0  daddsub_clz.o ABSOLUTE
    ../fplib/dflt.s                          0x00000000   Number         0  dflt_clz.o ABSOLUTE
    ../fplib/dmul.s                          0x00000000   Number         0  dmul.o ABSOLUTE
    ../fplib/dnaninf.s                       0x00000000   Number         0  dnaninf.o ABSOLUTE
    ../fplib/dretinf.s                       0x00000000   Number         0  dretinf.o ABSOLUTE
    ../fplib/f2d.s                           0x00000000   Number         0  f2d.o ABSOLUTE
    ../fplib/fnaninf.s                       0x00000000   Number         0  fnaninf.o ABSOLUTE
    ../fplib/fpinit.s                        0x00000000   Number         0  fpinit.o ABSOLUTE
    ../fplib/fretinf.s                       0x00000000   Number         0  fretinf.o ABSOLUTE
    ../fplib/usenofp.s                       0x00000000   Number         0  usenofp.o ABSOLUTE
    Source\ADMulti.c                         0x00000000   Number         0  admulti.o ABSOLUTE
    Source\AtCityCommSM.c                    0x00000000   Number         0  atcitycommsm.o ABSOLUTE
    Source\AtCityShootSM.c                   0x00000000   Number         0  atcityshootsm.o ABSOLUTE
    Source\BotSM.c                           0x00000000   Number         0  botsm_1.o ABSOLUTE
    Source\CAMMotorHW.c                      0x00000000   Number         0  cammotorhw.o ABSOLUTE
    Source\CitySensorHW.c                    0x00000000   Number         0  citysensorhw.o ABSOLUTE
    Source\ES_CheckEvents.c                  0x00000000   Number         0  es_checkevents.o ABSOLUTE
    Source\ES_DeferRecall.c                  0x00000000   Number         0  es_deferrecall.o ABSOLUTE
    Source\ES_Framework.c                    0x00000000   Number         0  es_framework.o ABSOLUTE
    Source\ES_LookupTables.c                 0x00000000   Number         0  es_lookuptables.o ABSOLUTE
    Source\ES_Port.c                         0x00000000   Number         0  es_port.o ABSOLUTE
    Source\ES_PostList.c                     0x00000000   Number         0  es_postlist.o ABSOLUTE
    Source\ES_Queue.c                        0x00000000   Number         0  es_queue.o ABSOLUTE
    Source\ES_Timers.c                       0x00000000   Number         0  es_timers.o ABSOLUTE
    Source\EnablePA25_PB23_PD7_PF0.c         0x00000000   Number         0  enablepa25_pb23_pd7_pf0.o ABSOLUTE
    Source\EventCheckers.c                   0x00000000   Number         0  eventcheckers.o ABSOLUTE
    Source\EventPrinter.c                    0x00000000   Number         0  eventprinter.o ABSOLUTE
    Source\FindingCityNavSM.c                0x00000000   Number         0  findingcitynavsm.o ABSOLUTE
    Source\GameTimerSM.c                     0x00000000   Number         0  gametimersm.o ABSOLUTE
    Source\HSMTemplateMain.c                 0x00000000   Number         0  hsmtemplatemain.o ABSOLUTE
    Source\IRSensorHW.c                      0x00000000   Number         0  irsensorhw.o ABSOLUTE
    Source\LEDsHW.c                          0x00000000   Number         0  ledshw.o ABSOLUTE
    Source\LineSensorsHW.c                   0x00000000   Number         0  linesensorshw.o ABSOLUTE
    Source\MapKeys.c                         0x00000000   Number         0  mapkeys.o ABSOLUTE
    Source\MasterSM.c                        0x00000000   Number         0  mastersm.o ABSOLUTE
    Source\PACCommSM.c                       0x00000000   Number         0  paccommsm.o ABSOLUTE
    Source\PWMServo.c                        0x00000000   Number         0  pwmservo.o ABSOLUTE
    Source\PeriodicEventCheckerService.c     0x00000000   Number         0  periodiceventcheckerservice.o ABSOLUTE
    Source\Project_MotorService.c            0x00000000   Number         0  project_motorservice.o ABSOLUTE
    Source\Project_PWMlab.c                  0x00000000   Number         0  project_pwmlab.o ABSOLUTE
    Source\SSIHW.c                           0x00000000   Number         0  ssihw.o ABSOLUTE
    Source\SwitchesHW.c                      0x00000000   Number         0  switcheshw.o ABSOLUTE
    Source\TeamColorSwitchHW.c               0x00000000   Number         0  teamcolorswitchhw.o ABSOLUTE
    Source\retarget.c                        0x00000000   Number         0  retarget.o ABSOLUTE
    Source\termio.c                          0x00000000   Number         0  termio.o ABSOLUTE
    Source\uartstdio.c                       0x00000000   Number         0  uartstdio.o ABSOLUTE
    StartUp\startup_rvmdk.S                  0x00000000   Number         0  startup_rvmdk.o ABSOLUTE
    cpu.c                                    0x00000000   Number         0  cpu.o ABSOLUTE
    cpu.c                                    0x00000000   Number         0  cpu.o ABSOLUTE
    dc.s                                     0x00000000   Number         0  dc.o ABSOLUTE
    gpio.c                                   0x00000000   Number         0  gpio.o ABSOLUTE
    interrupt.c                              0x00000000   Number         0  interrupt.o ABSOLUTE
    sysctl.c                                 0x00000000   Number         0  sysctl.o ABSOLUTE
    sysctl.c                                 0x00000000   Number         0  sysctl.o ABSOLUTE
    systick.c                                0x00000000   Number         0  systick.o ABSOLUTE
    uart.c                                   0x00000000   Number         0  uart.o ABSOLUTE
    $v0                                      0x0000026c   Number         0  startup_rvmdk.o(RESET)
    NmiSR                                    0x00000281   Thumb Code     0  startup_rvmdk.o(RESET)
    FaultISR                                 0x00000283   Thumb Code     0  startup_rvmdk.o(RESET)
    IntDefaultHandler                        0x00000285   Thumb Code     0  startup_rvmdk.o(RESET)
    !!!main                                  0x00000288   Section        8  __main.o(!!!main)
    !!!scatter                               0x00000290   Section       52  __scatter.o(!!!scatter)
    !!handler_copy                           0x000002c4   Section       26  __scatter_copy.o(!!handler_copy)
    !!handler_zi                             0x000002e0   Section       28  __scatter_zi.o(!!handler_zi)
    .ARM.Collect$$_printf_percent$$00000000  0x000002fc   Section        0  _printf_percent.o(.ARM.Collect$$_printf_percent$$00000000)
    .ARM.Collect$$_printf_percent$$00000009  0x000002fc   Section        6  _printf_d.o(.ARM.Collect$$_printf_percent$$00000009)
    .ARM.Collect$$_printf_percent$$0000000C  0x00000302   Section        6  _printf_x.o(.ARM.Collect$$_printf_percent$$0000000C)
    .ARM.Collect$$_printf_percent$$00000013  0x00000308   Section        6  _printf_c.o(.ARM.Collect$$_printf_percent$$00000013)
    .ARM.Collect$$_printf_percent$$00000014  0x0000030e   Section        6  _printf_s.o(.ARM.Collect$$_printf_percent$$00000014)
    .ARM.Collect$$_printf_percent$$00000017  0x00000314   Section        4  _printf_percent_end.o(.ARM.Collect$$_printf_percent$$00000017)
    .ARM.Collect$$libinit$$00000000          0x00000318   Section        2  libinit.o(.ARM.Collect$$libinit$$00000000)
    .ARM.Collect$$libinit$$00000001          0x0000031a   Section        4  libinit2.o(.ARM.Collect$$libinit$$00000001)
    .ARM.Collect$$libinit$$00000004          0x0000031e   Section        0  libinit2.o(.ARM.Collect$$libinit$$00000004)
    .ARM.Collect$$libinit$$0000000A          0x0000031e   Section        0  libinit2.o(.ARM.Collect$$libinit$$0000000A)
    .ARM.Collect$$libinit$$0000000C          0x0000031e   Section        0  libinit2.o(.ARM.Collect$$libinit$$0000000C)
    .ARM.Collect$$libinit$$0000000E          0x0000031e   Section        0  libinit2.o(.ARM.Collect$$libinit$$0000000E)
    .ARM.Collect$$libinit$$0000000F          0x0000031e   Section        6  libinit2.o(.ARM.Collect$$libinit$$0000000F)
    .ARM.Collect$$libinit$$00000011          0x00000324   Section        0  libinit2.o(.ARM.Collect$$libinit$$00000011)
    .ARM.Collect$$libinit$$00000012          0x00000324   Section       12  libinit2.o(.ARM.Collect$$libinit$$00000012)
    .ARM.Collect$$libinit$$00000013          0x00000330   Section        0  libinit2.o(.ARM.Collect$$libinit$$00000013)
    .ARM.Collect$$libinit$$00000015          0x00000330   Section        0  libinit2.o(.ARM.Collect$$libinit$$00000015)
    .ARM.Collect$$libinit$$00000017          0x00000330   Section        0  libinit2.o(.ARM.Collect$$libinit$$00000017)
    .ARM.Collect$$libinit$$00000019          0x00000330   Section        0  libinit2.o(.ARM.Collect$$libinit$$00000019)
    .ARM.Collect$$libinit$$0000001B          0x00000330   Section        0  libinit2.o(.ARM.Collect$$libinit$$0000001B)
    .ARM.Collect$$libinit$$0000001D          0x00000330   Section        0  libinit2.o(.ARM.Collect$$libinit$$0000001D)
    .ARM.Collect$$libinit$$0000001F          0x00000330   Section        0  libinit2.o(.ARM.Collect$$libinit$$0000001F)
    .ARM.Collect$$libinit$$00000021          0x00000330   Section        0  libinit2.o(.ARM.Collect$$libinit$$00000021)
    .ARM.Collect$$libinit$$00000023          0x00000330   Section        0  libinit2.o(.ARM.Collect$$libinit$$00000023)
    .ARM.Collect$$libinit$$00000025          0x00000330   Section        0  libinit2.o(.ARM.Collect$$libinit$$00000025)
    .ARM.Collect$$libinit$$0000002C          0x00000330   Section        0  libinit2.o(.ARM.Collect$$libinit$$0000002C)
    .ARM.Collect$$libinit$$0000002E          0x00000330   Section        0  libinit2.o(.ARM.Collect$$libinit$$0000002E)
    .ARM.Collect$$libinit$$00000030          0x00000330   Section        0  libinit2.o(.ARM.Collect$$libinit$$00000030)
    .ARM.Collect$$libinit$$00000032          0x00000330   Section        0  libinit2.o(.ARM.Collect$$libinit$$00000032)
    .ARM.Collect$$libinit$$00000033          0x00000330   Section        2  libinit2.o(.ARM.Collect$$libinit$$00000033)
    .ARM.Collect$$libshutdown$$00000000      0x00000332   Section        2  libshutdown.o(.ARM.Collect$$libshutdown$$00000000)
    .ARM.Collect$$libshutdown$$00000002      0x00000334   Section        0  libshutdown2.o(.ARM.Collect$$libshutdown$$00000002)
    .ARM.Collect$$libshutdown$$00000004      0x00000334   Section        0  libshutdown2.o(.ARM.Collect$$libshutdown$$00000004)
    .ARM.Collect$$libshutdown$$00000007      0x00000334   Section        0  libshutdown2.o(.ARM.Collect$$libshutdown$$00000007)
    .ARM.Collect$$libshutdown$$0000000A      0x00000334   Section        0  libshutdown2.o(.ARM.Collect$$libshutdown$$0000000A)
    .ARM.Collect$$libshutdown$$0000000C      0x00000334   Section        0  libshutdown2.o(.ARM.Collect$$libshutdown$$0000000C)
    .ARM.Collect$$libshutdown$$0000000F      0x00000334   Section        0  libshutdown2.o(.ARM.Collect$$libshutdown$$0000000F)
    .ARM.Collect$$libshutdown$$00000010      0x00000334   Section        2  libshutdown2.o(.ARM.Collect$$libshutdown$$00000010)
    .ARM.Collect$$rtentry$$00000000          0x00000336   Section        0  __rtentry.o(.ARM.Collect$$rtentry$$00000000)
    .ARM.Collect$$rtentry$$00000002          0x00000336   Section        0  __rtentry2.o(.ARM.Collect$$rtentry$$00000002)
    .ARM.Collect$$rtentry$$00000004          0x00000336   Section        6  __rtentry4.o(.ARM.Collect$$rtentry$$00000004)
    .ARM.Collect$$rtentry$$00000009          0x0000033c   Section        0  __rtentry2.o(.ARM.Collect$$rtentry$$00000009)
    .ARM.Collect$$rtentry$$0000000A          0x0000033c   Section        4  __rtentry2.o(.ARM.Collect$$rtentry$$0000000A)
    .ARM.Collect$$rtentry$$0000000C          0x00000340   Section        0  __rtentry2.o(.ARM.Collect$$rtentry$$0000000C)
    .ARM.Collect$$rtentry$$0000000D          0x00000340   Section        8  __rtentry2.o(.ARM.Collect$$rtentry$$0000000D)
    .ARM.Collect$$rtexit$$00000000           0x00000348   Section        2  rtexit.o(.ARM.Collect$$rtexit$$00000000)
    .ARM.Collect$$rtexit$$00000002           0x0000034a   Section        0  rtexit2.o(.ARM.Collect$$rtexit$$00000002)
    .ARM.Collect$$rtexit$$00000003           0x0000034a   Section        4  rtexit2.o(.ARM.Collect$$rtexit$$00000003)
    .ARM.Collect$$rtexit$$00000004           0x0000034e   Section        6  rtexit2.o(.ARM.Collect$$rtexit$$00000004)
    .emb_text                                0x00000354   Section        6  sysctl.o(.emb_text)
    $v0                                      0x00000354   Number         0  sysctl.o(.emb_text)
    .emb_text                                0x0000035c   Section       38  cpu.o(.emb_text)
    $v0                                      0x0000035c   Number         0  cpu.o(.emb_text)
    .text                                    0x00000384   Section       24  startup_rvmdk.o(.text)
    $v0                                      0x00000384   Number         0  startup_rvmdk.o(.text)
    .text                                    0x0000039c   Section        2  use_no_semi.o(.text)
    .text                                    0x0000039e   Section        0  toupper.o(.text)
    .text                                    0x000003bc   Section        0  noretval__2printf.o(.text)
    .text                                    0x000003d4   Section        0  _printf_pad.o(.text)
    .text                                    0x00000422   Section        0  _printf_str.o(.text)
    .text                                    0x00000474   Section        0  _printf_dec.o(.text)
    .text                                    0x000004ec   Section        0  _printf_hex_int.o(.text)
    .text                                    0x00000544   Section        0  __printf_flags_wp.o(.text)
    .text                                    0x0000067c   Section        0  getc.o(.text)
    .text                                    0x00000680   Section        0  puts.o(.text)
    .text                                    0x000006ac   Section        0  heapauxi.o(.text)
    .text                                    0x000006b4   Section       16  rt_ctype_table.o(.text)
    .text                                    0x000006c4   Section        0  _printf_intcommon.o(.text)
    .text                                    0x00000776   Section        0  _printf_char.o(.text)
    .text                                    0x000007a4   Section        0  _printf_char_file.o(.text)
    .text                                    0x000007c8   Section        8  rt_locale_intlibspace.o(.text)
    .text                                    0x000007d0   Section        0  _printf_char_common.o(.text)
    _printf_input_char                       0x000007d1   Thumb Code    10  _printf_char_common.o(.text)
    .text                                    0x00000800   Section        8  libspace.o(.text)
    .text                                    0x00000808   Section       74  sys_stackheap_outer.o(.text)
    .text                                    0x00000852   Section        0  exit.o(.text)
    .text                                    0x00000864   Section      128  strcmpv7m.o(.text)
    i.ADC_MultiInit                          0x000008e4   Section        0  admulti.o(i.ADC_MultiInit)
    i.ADC_MultiRead                          0x000009ac   Section        0  admulti.o(i.ADC_MultiRead)
    i.CPUgetPRIMASK_cpsid                    0x000009e4   Section        0  es_port.o(i.CPUgetPRIMASK_cpsid)
    i.CPUsetPRIMASK                          0x000009ec   Section        0  es_port.o(i.CPUsetPRIMASK)
    i.Check4CenterOnBlackLine                0x000009f4   Section        0  linesensorshw.o(i.Check4CenterOnBlackLine)
    i.Check4GameOver                         0x00000a4c   Section        0  gametimersm.o(i.Check4GameOver)
    i.Check4Keystroke                        0x00000a68   Section        0  eventcheckers.o(i.Check4Keystroke)
    i.Check4LineAligned                      0x00000a94   Section        0  linesensorshw.o(i.Check4LineAligned)
    i.Check4SwitchChange                     0x00000ad0   Section        0  periodiceventcheckerservice.o(i.Check4SwitchChange)
    i.CityIntHandler                         0x00000b3c   Section        0  citysensorhw.o(i.CityIntHandler)
    i.CityTOIntHandler                       0x00000ba0   Section        0  citysensorhw.o(i.CityTOIntHandler)
    i.ClearFindCityCounter                   0x00000bbc   Section        0  citysensorhw.o(i.ClearFindCityCounter)
    i.ClearLineSensorReadings                0x00000bc8   Section        0  linesensorshw.o(i.ClearLineSensorReadings)
    i.ControllerInterruptResponse            0x00000bd8   Section        0  project_motorservice.o(i.ControllerInterruptResponse)
    i.ConvertToFreqCode                      0x00000c80   Section        0  atcitycommsm.o(i.ConvertToFreqCode)
    ConvertToFreqCode                        0x00000c81   Thumb Code   174  atcitycommsm.o(i.ConvertToFreqCode)
    i.DisableCitySensorInts                  0x00000d30   Section        0  citysensorhw.o(i.DisableCitySensorInts)
    i.DisableIRInts                          0x00000d5c   Section        0  irsensorhw.o(i.DisableIRInts)
    i.DisableLineFollowInts                  0x00000d7c   Section        0  project_motorservice.o(i.DisableLineFollowInts)
    i.DuringAtCityRequesting                 0x00000d8c   Section        0  atcitycommsm.o(i.DuringAtCityRequesting)
    DuringAtCityRequesting                   0x00000d8d   Thumb Code    98  atcitycommsm.o(i.DuringAtCityRequesting)
    i.DuringBotIdle                          0x00000e38   Section        0  botsm_1.o(i.DuringBotIdle)
    DuringBotIdle                            0x00000e39   Thumb Code   136  botsm_1.o(i.DuringBotIdle)
    i.DuringRotatingOnLine                   0x00000eec   Section        0  findingcitynavsm.o(i.DuringRotatingOnLine)
    DuringRotatingOnLine                     0x00000eed   Thumb Code    90  findingcitynavsm.o(i.DuringRotatingOnLine)
    i.ES_CheckUserEvents                     0x00000f4c   Section        0  es_checkevents.o(i.ES_CheckUserEvents)
    i.ES_DeQueue                             0x00000f74   Section        0  es_queue.o(i.ES_DeQueue)
    i.ES_EnQueueFIFO                         0x00000fc8   Section        0  es_queue.o(i.ES_EnQueueFIFO)
    i.ES_GetMSBitSet                         0x00001010   Section        0  es_lookuptables.o(i.ES_GetMSBitSet)
    i.ES_InitQueue                           0x00001044   Section        0  es_queue.o(i.ES_InitQueue)
    i.ES_Initialize                          0x00001054   Section        0  es_framework.o(i.ES_Initialize)
    i.ES_PostList01                          0x000010a0   Section        0  es_postlist.o(i.ES_PostList01)
    i.ES_PostList02                          0x000010b0   Section        0  es_postlist.o(i.ES_PostList02)
    i.ES_PostToService                       0x000010c0   Section        0  es_framework.o(i.ES_PostToService)
    i.ES_Run                                 0x000010f8   Section        0  es_framework.o(i.ES_Run)
    i.ES_Timer_GetTime                       0x00001158   Section        0  es_timers.o(i.ES_Timer_GetTime)
    i.ES_Timer_Init                          0x0000115c   Section        0  es_timers.o(i.ES_Timer_Init)
    i.ES_Timer_InitTimer                     0x00001160   Section        0  es_timers.o(i.ES_Timer_InitTimer)
    i.ES_Timer_StopTimer                     0x0000119c   Section        0  es_timers.o(i.ES_Timer_StopTimer)
    i.ES_Timer_Tick_Resp                     0x000011c0   Section        0  es_timers.o(i.ES_Timer_Tick_Resp)
    i.EnableCitySensorInts                   0x0000122c   Section        0  citysensorhw.o(i.EnableCitySensorInts)
    i.EnableIRInts                           0x00001244   Section        0  irsensorhw.o(i.EnableIRInts)
    i.EnableLineFollowInts                   0x00001264   Section        0  project_motorservice.o(i.EnableLineFollowInts)
    i.GPIODirModeSet                         0x00001274   Section        0  gpio.o(i.GPIODirModeSet)
    i.GPIOPadConfigSet                       0x0000129c   Section        0  gpio.o(i.GPIOPadConfigSet)
    i.GPIOPinConfigure                       0x000013d4   Section        0  gpio.o(i.GPIOPinConfigure)
    i.GPIOPinTypeGPIOInput                   0x00001418   Section        0  gpio.o(i.GPIOPinTypeGPIOInput)
    i.GPIOPinTypeUART                        0x00001434   Section        0  gpio.o(i.GPIOPinTypeUART)
    i.GetBallCount                           0x00001450   Section        0  atcityshootsm.o(i.GetBallCount)
    i.GetCityPeriodUS                        0x0000145c   Section        0  citysensorhw.o(i.GetCityPeriodUS)
    i.GetCityShootStatus                     0x00001470   Section        0  atcityshootsm.o(i.GetCityShootStatus)
    i.GetLineReading                         0x0000147c   Section        0  linesensorshw.o(i.GetLineReading)
    i.GetPACMsg                              0x00001488   Section        0  paccommsm.o(i.GetPACMsg)
    i.GetRPM0                                0x00001494   Section        0  project_motorservice.o(i.GetRPM0)
    i.GetRPM1                                0x000014b4   Section        0  project_motorservice.o(i.GetRPM1)
    i.GetTeamColor                           0x000014d4   Section        0  botsm_1.o(i.GetTeamColor)
    i.GetTimeLeft                            0x000014e0   Section        0  gametimersm.o(i.GetTimeLeft)
    i.HardwareInit                           0x00001514   Section        0  mastersm.o(i.HardwareInit)
    i.IRIntHandler                           0x00001540   Section        0  irsensorhw.o(i.IRIntHandler)
    i.IRTOIntHandler                         0x000015a8   Section        0  irsensorhw.o(i.IRTOIntHandler)
    i.InitCAMMotorHW                         0x000015c4   Section        0  cammotorhw.o(i.InitCAMMotorHW)
    i.InitCitySensorHW                       0x00001610   Section        0  citysensorhw.o(i.InitCitySensorHW)
    i.InitControllerInterrupt                0x000016e0   Section        0  project_motorservice.o(i.InitControllerInterrupt)
    i.InitEncoderInterrupt                   0x00001760   Section        0  project_motorservice.o(i.InitEncoderInterrupt)
    i.InitEventPrinter                       0x0000189c   Section        0  eventprinter.o(i.InitEventPrinter)
    i.InitIRSensorHW                         0x000018a8   Section        0  irsensorhw.o(i.InitIRSensorHW)
    i.InitLEDsHW                             0x0000197c   Section        0  ledshw.o(i.InitLEDsHW)
    i.InitLineSensorsHW                      0x000019c8   Section        0  linesensorshw.o(i.InitLineSensorsHW)
    i.InitMapKeys                            0x00001a14   Section        0  mapkeys.o(i.InitMapKeys)
    i.InitMasterSM                           0x00001a20   Section        0  mastersm.o(i.InitMasterSM)
    i.InitMotorService                       0x00001a3c   Section        0  project_motorservice.o(i.InitMotorService)
    i.InitPeriodicEventCheckerService        0x00001abc   Section        0  periodiceventcheckerservice.o(i.InitPeriodicEventCheckerService)
    i.InitSSIHW                              0x00001af8   Section        0  ssihw.o(i.InitSSIHW)
    i.InitSwitchesHW                         0x00001c04   Section        0  switcheshw.o(i.InitSwitchesHW)
    i.InitTeamColorSwitchHW                  0x00001c90   Section        0  teamcolorswitchhw.o(i.InitTeamColorSwitchHW)
    i.InputCaptureResponse0                  0x00001ce0   Section        0  project_motorservice.o(i.InputCaptureResponse0)
    i.InputCaptureResponse1                  0x00001d18   Section        0  project_motorservice.o(i.InputCaptureResponse1)
    i.IntMasterEnable                        0x00001d4c   Section        0  interrupt.o(i.IntMasterEnable)
    i.OnLineMotorSpeedsInterrupt             0x00001d5c   Section        0  project_motorservice.o(i.OnLineMotorSpeedsInterrupt)
    i.PWMInit                                0x00001e04   Section        0  project_pwmlab.o(i.PWMInit)
    i.PortFunctionInit                       0x00001eb4   Section        0  enablepa25_pb23_pd7_pf0.o(i.PortFunctionInit)
    i.PostEventPrinter                       0x00001f54   Section        0  eventprinter.o(i.PostEventPrinter)
    i.PostMapKeys                            0x00001f6c   Section        0  mapkeys.o(i.PostMapKeys)
    i.PostMasterSM                           0x00001f7c   Section        0  mastersm.o(i.PostMasterSM)
    i.PostMotorService                       0x00001f8c   Section        0  project_motorservice.o(i.PostMotorService)
    i.PostPeriodicEventCheckerService        0x00001f9c   Section        0  periodiceventcheckerservice.o(i.PostPeriodicEventCheckerService)
    i.PostToList                             0x00001fb0   Section        0  es_postlist.o(i.PostToList)
    PostToList                               0x00001fb1   Thumb Code    46  es_postlist.o(i.PostToList)
    i.PrintRPM                               0x00001fe0   Section        0  project_motorservice.o(i.PrintRPM)
    i.QueryAtCityCommSM                      0x00002010   Section        0  atcitycommsm.o(i.QueryAtCityCommSM)
    i.QueryAtCityShootSM                     0x0000201c   Section        0  atcityshootsm.o(i.QueryAtCityShootSM)
    i.QueryBotSM                             0x00002028   Section        0  botsm_1.o(i.QueryBotSM)
    i.QueryFindingCityNavSM                  0x00002034   Section        0  findingcitynavsm.o(i.QueryFindingCityNavSM)
    i.QueryGameTimerSM                       0x00002040   Section        0  gametimersm.o(i.QueryGameTimerSM)
    i.QueryPACCommSM                         0x0000204c   Section        0  paccommsm.o(i.QueryPACCommSM)
    i.ReadSSI                                0x00002058   Section        0  ssihw.o(i.ReadSSI)
    i.ReadSwitch                             0x0000206c   Section        0  switcheshw.o(i.ReadSwitch)
    i.ReadTeamColor                          0x000020b8   Section        0  teamcolorswitchhw.o(i.ReadTeamColor)
    i.ReportAllStates                        0x000020cc   Section        0  mapkeys.o(i.ReportAllStates)
    i.ResetBallCounter                       0x0000239c   Section        0  atcityshootsm.o(i.ResetBallCounter)
    i.RunAtCityCommSM                        0x000023a8   Section        0  atcitycommsm.o(i.RunAtCityCommSM)
    i.RunAtCityShootSM                       0x000025cc   Section        0  atcityshootsm.o(i.RunAtCityShootSM)
    i.RunBotSM                               0x00002764   Section        0  botsm_1.o(i.RunBotSM)
    i.RunEventPrinter                        0x00002908   Section        0  eventprinter.o(i.RunEventPrinter)
    i.RunFindingCityNavSM                    0x00002c64   Section        0  findingcitynavsm.o(i.RunFindingCityNavSM)
    i.RunGameTimerSM                         0x00002dc0   Section        0  gametimersm.o(i.RunGameTimerSM)
    i.RunMapKeys                             0x00002e68   Section        0  mapkeys.o(i.RunMapKeys)
    i.RunMasterSM                            0x00002f3c   Section        0  mastersm.o(i.RunMasterSM)
    i.RunMotorService                        0x00002f80   Section        0  project_motorservice.o(i.RunMotorService)
    i.RunPACCommSM                           0x00002fa8   Section        0  paccommsm.o(i.RunPACCommSM)
    i.RunPeriodicEventCheckerService         0x00003070   Section        0  periodiceventcheckerservice.o(i.RunPeriodicEventCheckerService)
    i.SSIHWEOTIntHandler                     0x000030c0   Section        0  ssihw.o(i.SSIHWEOTIntHandler)
    i.SetCAMMotorOff                         0x000030e8   Section        0  cammotorhw.o(i.SetCAMMotorOff)
    i.SetCAMMotorOn                          0x000030fc   Section        0  cammotorhw.o(i.SetCAMMotorOn)
    i.SetLEDOff                              0x00003110   Section        0  ledshw.o(i.SetLEDOff)
    i.SetLEDOn                               0x00003144   Section        0  ledshw.o(i.SetLEDOn)
    i.SetMotorDutyCycles                     0x00003178   Section        0  project_motorservice.o(i.SetMotorDutyCycles)
    i.SetShouldShootList                     0x000031ac   Section        0  atcityshootsm.o(i.SetShouldShootList)
    i.SetTargetBasedOnMyTeam                 0x000031dc   Section        0  irsensorhw.o(i.SetTargetBasedOnMyTeam)
    i.StartAtCityCommSM                      0x00003240   Section        0  atcitycommsm.o(i.StartAtCityCommSM)
    i.StartAtCityShootSM                     0x00003258   Section        0  atcityshootsm.o(i.StartAtCityShootSM)
    i.StartBotSM                             0x0000326c   Section        0  botsm_1.o(i.StartBotSM)
    i.StartFindingCityNavSM                  0x00003284   Section        0  findingcitynavsm.o(i.StartFindingCityNavSM)
    i.StartGameTimerSM                       0x00003298   Section        0  gametimersm.o(i.StartGameTimerSM)
    i.StartMasterSM                          0x000032ac   Section        0  mastersm.o(i.StartMasterSM)
    i.StartPACCommSM                         0x000032bc   Section        0  paccommsm.o(i.StartPACCommSM)
    i.SysCtlClockSet                         0x000032d0   Section        0  sysctl.o(i.SysCtlClockSet)
    i.SysCtlPeripheralEnable                 0x000033f0   Section        0  sysctl.o(i.SysCtlPeripheralEnable)
    i.SysTickEnable                          0x00003418   Section        0  systick.o(i.SysTickEnable)
    i.SysTickIntEnable                       0x00003426   Section        0  systick.o(i.SysTickIntEnable)
    i.SysTickIntHandler                      0x00003434   Section        0  es_port.o(i.SysTickIntHandler)
    i.SysTickPeriodSet                       0x00003448   Section        0  systick.o(i.SysTickPeriodSet)
    i.TERMIO_GetChar                         0x00003452   Section        0  termio.o(i.TERMIO_GetChar)
    i.TERMIO_Init                            0x00003458   Section        0  termio.o(i.TERMIO_Init)
    i.TERMIO_PutChar                         0x000034a8   Section        0  termio.o(i.TERMIO_PutChar)
    i.TimeoutResponse0                       0x000034b4   Section        0  project_motorservice.o(i.TimeoutResponse0)
    i.TimeoutResponse1                       0x000034d0   Section        0  project_motorservice.o(i.TimeoutResponse1)
    i.TransmitSSI                            0x000034ec   Section        0  ssihw.o(i.TransmitSSI)
    i.UARTCharPut                            0x00003508   Section        0  uart.o(i.UARTCharPut)
    i.UARTClockSourceSet                     0x00003514   Section        0  uart.o(i.UARTClockSourceSet)
    i.UARTStdioConfig                        0x0000351c   Section        0  uartstdio.o(i.UARTStdioConfig)
    i.UARTgetc                               0x00003578   Section        0  uartstdio.o(i.UARTgetc)
    i.UpdateAllLineReadings                  0x00003590   Section        0  linesensorshw.o(i.UpdateAllLineReadings)
    i._HW_GetTickCount                       0x000035b8   Section        0  es_port.o(i._HW_GetTickCount)
    i._HW_Process_Pending_Ints               0x000035c4   Section        0  es_port.o(i._HW_Process_Pending_Ints)
    i._HW_Timer_Init                         0x000035e4   Section        0  es_port.o(i._HW_Timer_Init)
    i._is_digit                              0x000035fa   Section        0  __printf_wp.o(i._is_digit)
    i._sys_exit                              0x00003608   Section        0  retarget.o(i._sys_exit)
    i.ferror                                 0x0000360a   Section        0  retarget.o(i.ferror)
    i.fgetc                                  0x00003610   Section        0  retarget.o(i.fgetc)
    i.fputc                                  0x00003614   Section        0  retarget.o(i.fputc)
    i.kbhit                                  0x00003624   Section        0  termio.o(i.kbhit)
    i.main                                   0x00003638   Section        0  hsmtemplatemain.o(i.main)
    i.setDuty                                0x00003780   Section        0  project_pwmlab.o(i.setDuty)
    locale$$code                             0x0000381c   Section       44  lc_ctype_c.o(locale$$code)
    x$fpl$d2f                                0x00003848   Section       98  d2f.o(x$fpl$d2f)
    $v0                                      0x00003848   Number         0  d2f.o(x$fpl$d2f)
    x$fpl$dadd                               0x000038ac   Section      336  daddsub_clz.o(x$fpl$dadd)
    $v0                                      0x000038ac   Number         0  daddsub_clz.o(x$fpl$dadd)
    _dadd1                                   0x000038bd   Thumb Code     0  daddsub_clz.o(x$fpl$dadd)
    x$fpl$dflt                               0x000039fc   Section       46  dflt_clz.o(x$fpl$dflt)
    $v0                                      0x000039fc   Number         0  dflt_clz.o(x$fpl$dflt)
    x$fpl$dmul                               0x00003a2c   Section      340  dmul.o(x$fpl$dmul)
    $v0                                      0x00003a2c   Number         0  dmul.o(x$fpl$dmul)
    x$fpl$dnaninf                            0x00003b80   Section      156  dnaninf.o(x$fpl$dnaninf)
    $v0                                      0x00003b80   Number         0  dnaninf.o(x$fpl$dnaninf)
    x$fpl$dretinf                            0x00003c1c   Section       12  dretinf.o(x$fpl$dretinf)
    $v0                                      0x00003c1c   Number         0  dretinf.o(x$fpl$dretinf)
    x$fpl$dsub                               0x00003c28   Section      468  daddsub_clz.o(x$fpl$dsub)
    $v0                                      0x00003c28   Number         0  daddsub_clz.o(x$fpl$dsub)
    _dsub1                                   0x00003c39   Thumb Code     0  daddsub_clz.o(x$fpl$dsub)
    x$fpl$f2d                                0x00003dfc   Section       86  f2d.o(x$fpl$f2d)
    $v0                                      0x00003dfc   Number         0  f2d.o(x$fpl$f2d)
    x$fpl$fnaninf                            0x00003e52   Section      140  fnaninf.o(x$fpl$fnaninf)
    $v0                                      0x00003e52   Number         0  fnaninf.o(x$fpl$fnaninf)
    x$fpl$fpinit                             0x00003ede   Section       10  fpinit.o(x$fpl$fpinit)
    $v0                                      0x00003ede   Number         0  fpinit.o(x$fpl$fpinit)
    x$fpl$fretinf                            0x00003ee8   Section       10  fretinf.o(x$fpl$fretinf)
    $v0                                      0x00003ee8   Number         0  fretinf.o(x$fpl$fretinf)
    x$fpl$usenofp                            0x00003ef2   Section        0  usenofp.o(x$fpl$usenofp)
    .constdata                               0x00003ef4   Section       48  admulti.o(.constdata)
    HowMany2Mask                             0x00003ef4   Data          16  admulti.o(.constdata)
    HowMany2Mux                              0x00003f04   Data          16  admulti.o(.constdata)
    HowMany2CTL                              0x00003f14   Data          16  admulti.o(.constdata)
    .constdata                               0x00003f24   Section        4  botsm_1.o(.constdata)
    .constdata                               0x00003f28   Section        4  gametimersm.o(.constdata)
    .constdata                               0x00003f2c   Section        4  paccommsm.o(.constdata)
    .constdata                               0x00003f30   Section        4  atcitycommsm.o(.constdata)
    .constdata                               0x00003f34   Section        4  atcityshootsm.o(.constdata)
    .constdata                               0x00003f38   Section        4  findingcitynavsm.o(.constdata)
    .constdata                               0x00003f3c   Section        4  es_checkevents.o(.constdata)
    ES_EventList                             0x00003f3c   Data           4  es_checkevents.o(.constdata)
    .constdata                               0x00003f40   Section       80  es_framework.o(.constdata)
    ServDescList                             0x00003f40   Data          40  es_framework.o(.constdata)
    EventQueues                              0x00003f68   Data          40  es_framework.o(.constdata)
    .constdata                               0x00003f90   Section       32  es_lookuptables.o(.constdata)
    .constdata                               0x00003fb0   Section       15  es_lookuptables.o(.constdata)
    .constdata                               0x00003fc0   Section       24  es_postlist.o(.constdata)
    DistList00                               0x00003fc0   Data           8  es_postlist.o(.constdata)
    DistList01                               0x00003fc8   Data           8  es_postlist.o(.constdata)
    DistList02                               0x00003fd0   Data           8  es_postlist.o(.constdata)
    .constdata                               0x00003fd8   Section       64  es_timers.o(.constdata)
    Timer2PostFunc                           0x00003fd8   Data          64  es_timers.o(.constdata)
    .constdata                               0x00004018   Section       28  uartstdio.o(.constdata)
    g_pcHex                                  0x00004018   Data           4  uartstdio.o(.constdata)
    g_ui32UARTBase                           0x0000401c   Data          12  uartstdio.o(.constdata)
    g_ui32UARTPeriph                         0x00004028   Data          12  uartstdio.o(.constdata)
    .constdata                               0x00004034   Section      528  gpio.o(.constdata)
    g_ppui32GPIOIntMapBlizzard               0x00004034   Data         192  gpio.o(.constdata)
    g_ppui32GPIOIntMapSnowflake              0x000040f4   Data         192  gpio.o(.constdata)
    g_pui32GPIOBaseAddrs                     0x000041b4   Data         144  gpio.o(.constdata)
    .constdata                               0x00004244   Section       40  _printf_hex_int.o(.constdata)
    uc_hextab                                0x00004244   Data          20  _printf_hex_int.o(.constdata)
    lc_hextab                                0x00004258   Data          20  _printf_hex_int.o(.constdata)
    .constdata                               0x0000426c   Section       17  __printf_flags_wp.o(.constdata)
    maptable                                 0x0000426c   Data          17  __printf_flags_wp.o(.constdata)
    .conststring                             0x00004280   Section      195  atcitycommsm.o(.conststring)
    .conststring                             0x00004344   Section       17  uartstdio.o(.conststring)
    locale$$data                             0x00004378   Section      272  lc_ctype_c.o(locale$$data)
    __lcctype_c_name                         0x0000437c   Data           2  lc_ctype_c.o(locale$$data)
    __lcctype_c_start                        0x00004384   Data           0  lc_ctype_c.o(locale$$data)
    __lcctype_c_end                          0x00004488   Data           0  lc_ctype_c.o(locale$$data)
    .data                                    0x20000000   Section        1  admulti.o(.data)
    NumChannelsConverting                    0x20000000   Data           1  admulti.o(.data)
    .data                                    0x20000004   Section       20  citysensorhw.o(.data)
    lastTime                                 0x20000008   Data           4  citysensorhw.o(.data)
    thisTime                                 0x2000000c   Data           4  citysensorhw.o(.data)
    lastPeriod                               0x20000010   Data           4  citysensorhw.o(.data)
    thisPeriod                               0x20000014   Data           4  citysensorhw.o(.data)
    .data                                    0x20000018   Section        1  eventprinter.o(.data)
    MyPriority                               0x20000018   Data           1  eventprinter.o(.data)
    .data                                    0x2000001c   Section       24  irsensorhw.o(.data)
    lastPeriodInRange                        0x2000001c   Data           1  irsensorhw.o(.data)
    thisPeriodInRange                        0x2000001d   Data           1  irsensorhw.o(.data)
    lastTime                                 0x20000020   Data           4  irsensorhw.o(.data)
    thisTime                                 0x20000024   Data           4  irsensorhw.o(.data)
    thisPeriod                               0x20000028   Data           4  irsensorhw.o(.data)
    targetPeriodMin                          0x2000002c   Data           4  irsensorhw.o(.data)
    targetPeriodMax                          0x20000030   Data           4  irsensorhw.o(.data)
    .data                                    0x20000034   Section       14  linesensorshw.o(.data)
    lastCenterOnBlackLine                    0x20000034   Data           1  linesensorshw.o(.data)
    lastLineAligned                          0x20000035   Data           1  linesensorshw.o(.data)
    lastFrontOnBlackLine                     0x20000036   Data           1  linesensorshw.o(.data)
    offLineCounter                           0x20000038   Data           2  linesensorshw.o(.data)
    lineReadings                             0x2000003a   Data           8  linesensorshw.o(.data)
    .data                                    0x20000042   Section        2  mastersm.o(.data)
    CurrentState                             0x20000042   Data           1  mastersm.o(.data)
    MyPriority                               0x20000043   Data           1  mastersm.o(.data)
    .data                                    0x20000044   Section        1  ssihw.o(.data)
    .data                                    0x20000045   Section        3  botsm_1.o(.data)
    CurrentState                             0x20000045   Data           1  botsm_1.o(.data)
    teamColor                                0x20000046   Data           1  botsm_1.o(.data)
    readyForNewCity                          0x20000047   Data           1  botsm_1.o(.data)
    .data                                    0x20000048   Section        4  gametimersm.o(.data)
    CurrentState                             0x20000048   Data           1  gametimersm.o(.data)
    counter                                  0x20000049   Data           1  gametimersm.o(.data)
    lastMinuteTime                           0x2000004a   Data           2  gametimersm.o(.data)
    .data                                    0x2000004c   Section        8  paccommsm.o(.data)
    CurrentState                             0x2000004c   Data           1  paccommsm.o(.data)
    PACmsg                                   0x20000050   Data           4  paccommsm.o(.data)
    .data                                    0x20000054   Section        2  atcitycommsm.o(.data)
    CurrentState                             0x20000054   Data           1  atcitycommsm.o(.data)
    ackCounter                               0x20000055   Data           1  atcitycommsm.o(.data)
    .data                                    0x20000056   Section        1  mapkeys.o(.data)
    MyPriority                               0x20000056   Data           1  mapkeys.o(.data)
    .data                                    0x20000058   Section       26  atcityshootsm.o(.data)
    CurrentState                             0x20000058   Data           1  atcityshootsm.o(.data)
    targetCity                               0x20000059   Data           1  atcityshootsm.o(.data)
    ballCounter                              0x2000005a   Data           1  atcityshootsm.o(.data)
    turnTime                                 0x2000005c   Data           2  atcityshootsm.o(.data)
    shouldShootRed                           0x2000005e   Data          10  atcityshootsm.o(.data)
    shouldShootBlue                          0x20000068   Data          10  atcityshootsm.o(.data)
    .data                                    0x20000072   Section        1  findingcitynavsm.o(.data)
    CurrentState                             0x20000072   Data           1  findingcitynavsm.o(.data)
    .data                                    0x20000074   Section       36  project_motorservice.o(.data)
    EdgeFlag                                 0x20000074   Data           1  project_motorservice.o(.data)
    MyPriority                               0x20000075   Data           1  project_motorservice.o(.data)
    TargetRPM_L                              0x20000078   Data           4  project_motorservice.o(.data)
    TargetRPM_R                              0x2000007c   Data           4  project_motorservice.o(.data)
    integrand0                               0x20000080   Data           4  project_motorservice.o(.data)
    integrand1                               0x20000084   Data           4  project_motorservice.o(.data)
    Period0                                  0x20000088   Data           4  project_motorservice.o(.data)
    Period1                                  0x2000008c   Data           4  project_motorservice.o(.data)
    LastCapture0                             0x20000090   Data           4  project_motorservice.o(.data)
    LastCapture1                             0x20000094   Data           4  project_motorservice.o(.data)
    .data                                    0x20000098   Section        9  periodiceventcheckerservice.o(.data)
    MyPriority                               0x20000098   Data           1  periodiceventcheckerservice.o(.data)
    counter                                  0x20000099   Data           1  periodiceventcheckerservice.o(.data)
    switchStatus                             0x2000009a   Data           7  periodiceventcheckerservice.o(.data)
    .data                                    0x200000a2   Section        6  es_framework.o(.data)
    ThisEvent                                0x200000a4   Data           4  es_framework.o(.data)
    .data                                    0x200000a8   Section        4  es_port.o(.data)
    TickCount                                0x200000a8   Data           1  es_port.o(.data)
    SysTickCounter                           0x200000aa   Data           2  es_port.o(.data)
    .data                                    0x200000ac   Section        4  es_queue.o(.data)
    .data                                    0x200000b0   Section       10  es_timers.o(.data)
    NextTimer2Process                        0x200000b0   Data           1  es_timers.o(.data)
    NeedsProcessing                          0x200000b2   Data           2  es_timers.o(.data)
    TMR_ActiveFlags                          0x200000b4   Data           2  es_timers.o(.data)
    NewEvent                                 0x200000b6   Data           4  es_timers.o(.data)
    .data                                    0x200000bc   Section        4  retarget.o(.data)
    .data                                    0x200000c0   Section        4  retarget.o(.data)
    .data                                    0x200000c4   Section        8  uartstdio.o(.data)
    bLastWasCR                               0x200000c4   Data           1  uartstdio.o(.data)
    g_ui32Base                               0x200000c8   Data           4  uartstdio.o(.data)
    .bss                                     0x200000cc   Section       16  linesensorshw.o(.bss)
    results                                  0x200000cc   Data          16  linesensorshw.o(.bss)
    .bss                                     0x200000dc   Section       10  atcityshootsm.o(.bss)
    shouldShoot                              0x200000dc   Data          10  atcityshootsm.o(.bss)
    .bss                                     0x200000e6   Section       12  es_framework.o(.bss)
    Queue0                                   0x200000e6   Data          12  es_framework.o(.bss)
    .bss                                     0x200000f2   Section       16  es_framework.o(.bss)
    Queue1                                   0x200000f2   Data          16  es_framework.o(.bss)
    .bss                                     0x20000102   Section       16  es_framework.o(.bss)
    Queue2                                   0x20000102   Data          16  es_framework.o(.bss)
    .bss                                     0x20000112   Section       16  es_framework.o(.bss)
    Queue3                                   0x20000112   Data          16  es_framework.o(.bss)
    .bss                                     0x20000122   Section       16  es_framework.o(.bss)
    Queue4                                   0x20000122   Data          16  es_framework.o(.bss)
    .bss                                     0x20000132   Section       32  es_timers.o(.bss)
    TMR_TimerArray                           0x20000132   Data          32  es_timers.o(.bss)
    .bss                                     0x20000154   Section       96  libspace.o(.bss)
    HEAP                                     0x200001b8   Section        0  startup_rvmdk.o(HEAP)
    STACK                                    0x200001b8   Section     2048  startup_rvmdk.o(STACK)
    HeapMem                                  0x200001b8   Data           0  startup_rvmdk.o(HEAP)
    StackMem                                 0x200001b8   Data           0  startup_rvmdk.o(STACK)

    Global Symbols

    Symbol Name                              Value     Ov Type        Size  Object(Section)

    BuildAttributes$$THM_ISAv4$E$P$D$K$B$S$7EM$VFPi3$EXTD16$VFPS$VFMA$PE$A:L22UL41UL21$X:L11$S22US41US21$IEEE1$IW$USESV6$~STKCKD$USESV7$~SHL$OTIME$ROPI$EBA8$UX$STANDARDLIB$REQ8$PRES8$EABIv2 0x00000000   Number         0  anon$$obj.o ABSOLUTE
    __ARM_use_no_argv                        0x00000000   Number         0  hsmtemplatemain.o ABSOLUTE
    __Vectors                                0x00000000   Data           0  startup_rvmdk.o(RESET)
    _printf_flags                            0x00000000   Number         0  printf_stubs.o ABSOLUTE
    _printf_return_value                     0x00000000   Number         0  printf_stubs.o ABSOLUTE
    _printf_sizespec                         0x00000000   Number         0  printf_stubs.o ABSOLUTE
    _printf_widthprec                        0x00000000   Number         0  printf_stubs.o ABSOLUTE
    __ARM_exceptions_init                     - Undefined Weak Reference
    __alloca_initialize                       - Undefined Weak Reference
    __arm_preinit_                            - Undefined Weak Reference
    __cpp_initialize__aeabi_                  - Undefined Weak Reference
    __cxa_finalize                            - Undefined Weak Reference
    __sigvec_lookup                           - Undefined Weak Reference
    _atexit_init                              - Undefined Weak Reference
    _call_atexit_fns                          - Undefined Weak Reference
    _clock_init                               - Undefined Weak Reference
    _fp_trap_init                             - Undefined Weak Reference
    _fp_trap_shutdown                         - Undefined Weak Reference
    _get_lc_collate                           - Undefined Weak Reference
    _get_lc_monetary                          - Undefined Weak Reference
    _get_lc_numeric                           - Undefined Weak Reference
    _get_lc_time                              - Undefined Weak Reference
    _getenv_init                              - Undefined Weak Reference
    _handle_redirection                       - Undefined Weak Reference
    _init_alloc                               - Undefined Weak Reference
    _init_user_alloc                          - Undefined Weak Reference
    _initio                                   - Undefined Weak Reference
    _printf_mbtowc                            - Undefined Weak Reference
    _printf_truncate_signed                   - Undefined Weak Reference
    _printf_truncate_unsigned                 - Undefined Weak Reference
    _rand_init                                - Undefined Weak Reference
    _signal_finish                            - Undefined Weak Reference
    _signal_init                              - Undefined Weak Reference
    _terminate_alloc                          - Undefined Weak Reference
    _terminate_user_alloc                     - Undefined Weak Reference
    _terminateio                              - Undefined Weak Reference
    Reset_Handler                            0x0000026d   Thumb Code     0  startup_rvmdk.o(RESET)
    __main                                   0x00000289   Thumb Code     8  __main.o(!!!main)
    __scatterload                            0x00000291   Thumb Code     0  __scatter.o(!!!scatter)
    __scatterload_rt2                        0x00000291   Thumb Code    44  __scatter.o(!!!scatter)
    __scatterload_rt2_thumb_only             0x00000291   Thumb Code     0  __scatter.o(!!!scatter)
    __scatterload_null                       0x0000029f   Thumb Code     0  __scatter.o(!!!scatter)
    __scatterload_copy                       0x000002c5   Thumb Code    26  __scatter_copy.o(!!handler_copy)
    __scatterload_zeroinit                   0x000002e1   Thumb Code    28  __scatter_zi.o(!!handler_zi)
    _printf_d                                0x000002fd   Thumb Code     0  _printf_d.o(.ARM.Collect$$_printf_percent$$00000009)
    _printf_percent                          0x000002fd   Thumb Code     0  _printf_percent.o(.ARM.Collect$$_printf_percent$$00000000)
    _printf_x                                0x00000303   Thumb Code     0  _printf_x.o(.ARM.Collect$$_printf_percent$$0000000C)
    _printf_c                                0x00000309   Thumb Code     0  _printf_c.o(.ARM.Collect$$_printf_percent$$00000013)
    _printf_s                                0x0000030f   Thumb Code     0  _printf_s.o(.ARM.Collect$$_printf_percent$$00000014)
    _printf_percent_end                      0x00000315   Thumb Code     0  _printf_percent_end.o(.ARM.Collect$$_printf_percent$$00000017)
    __rt_lib_init                            0x00000319   Thumb Code     0  libinit.o(.ARM.Collect$$libinit$$00000000)
    __rt_lib_init_fp_1                       0x0000031b   Thumb Code     0  libinit2.o(.ARM.Collect$$libinit$$00000001)
    __rt_lib_init_heap_1                     0x0000031f   Thumb Code     0  libinit2.o(.ARM.Collect$$libinit$$0000000A)
    __rt_lib_init_lc_common                  0x0000031f   Thumb Code     0  libinit2.o(.ARM.Collect$$libinit$$0000000F)
    __rt_lib_init_preinit_1                  0x0000031f   Thumb Code     0  libinit2.o(.ARM.Collect$$libinit$$00000004)
    __rt_lib_init_rand_1                     0x0000031f   Thumb Code     0  libinit2.o(.ARM.Collect$$libinit$$0000000E)
    __rt_lib_init_user_alloc_1               0x0000031f   Thumb Code     0  libinit2.o(.ARM.Collect$$libinit$$0000000C)
    __rt_lib_init_lc_collate_1               0x00000325   Thumb Code     0  libinit2.o(.ARM.Collect$$libinit$$00000011)
    __rt_lib_init_lc_ctype_2                 0x00000325   Thumb Code     0  libinit2.o(.ARM.Collect$$libinit$$00000012)
    __rt_lib_init_alloca_1                   0x00000331   Thumb Code     0  libinit2.o(.ARM.Collect$$libinit$$0000002E)
    __rt_lib_init_argv_1                     0x00000331   Thumb Code     0  libinit2.o(.ARM.Collect$$libinit$$0000002C)
    __rt_lib_init_atexit_1                   0x00000331   Thumb Code     0  libinit2.o(.ARM.Collect$$libinit$$0000001B)
    __rt_lib_init_clock_1                    0x00000331   Thumb Code     0  libinit2.o(.ARM.Collect$$libinit$$00000021)
    __rt_lib_init_cpp_1                      0x00000331   Thumb Code     0  libinit2.o(.ARM.Collect$$libinit$$00000032)
    __rt_lib_init_exceptions_1               0x00000331   Thumb Code     0  libinit2.o(.ARM.Collect$$libinit$$00000030)
    __rt_lib_init_fp_trap_1                  0x00000331   Thumb Code     0  libinit2.o(.ARM.Collect$$libinit$$0000001F)
    __rt_lib_init_getenv_1                   0x00000331   Thumb Code     0  libinit2.o(.ARM.Collect$$libinit$$00000023)
    __rt_lib_init_lc_ctype_1                 0x00000331   Thumb Code     0  libinit2.o(.ARM.Collect$$libinit$$00000013)
    __rt_lib_init_lc_monetary_1              0x00000331   Thumb Code     0  libinit2.o(.ARM.Collect$$libinit$$00000015)
    __rt_lib_init_lc_numeric_1               0x00000331   Thumb Code     0  libinit2.o(.ARM.Collect$$libinit$$00000017)
    __rt_lib_init_lc_time_1                  0x00000331   Thumb Code     0  libinit2.o(.ARM.Collect$$libinit$$00000019)
    __rt_lib_init_return                     0x00000331   Thumb Code     0  libinit2.o(.ARM.Collect$$libinit$$00000033)
    __rt_lib_init_signal_1                   0x00000331   Thumb Code     0  libinit2.o(.ARM.Collect$$libinit$$0000001D)
    __rt_lib_init_stdio_1                    0x00000331   Thumb Code     0  libinit2.o(.ARM.Collect$$libinit$$00000025)
    __rt_lib_shutdown                        0x00000333   Thumb Code     0  libshutdown.o(.ARM.Collect$$libshutdown$$00000000)
    __rt_lib_shutdown_cpp_1                  0x00000335   Thumb Code     0  libshutdown2.o(.ARM.Collect$$libshutdown$$00000002)
    __rt_lib_shutdown_fp_trap_1              0x00000335   Thumb Code     0  libshutdown2.o(.ARM.Collect$$libshutdown$$00000007)
    __rt_lib_shutdown_heap_1                 0x00000335   Thumb Code     0  libshutdown2.o(.ARM.Collect$$libshutdown$$0000000F)
    __rt_lib_shutdown_return                 0x00000335   Thumb Code     0  libshutdown2.o(.ARM.Collect$$libshutdown$$00000010)
    __rt_lib_shutdown_signal_1               0x00000335   Thumb Code     0  libshutdown2.o(.ARM.Collect$$libshutdown$$0000000A)
    __rt_lib_shutdown_stdio_1                0x00000335   Thumb Code     0  libshutdown2.o(.ARM.Collect$$libshutdown$$00000004)
    __rt_lib_shutdown_user_alloc_1           0x00000335   Thumb Code     0  libshutdown2.o(.ARM.Collect$$libshutdown$$0000000C)
    __rt_entry                               0x00000337   Thumb Code     0  __rtentry.o(.ARM.Collect$$rtentry$$00000000)
    __rt_entry_presh_1                       0x00000337   Thumb Code     0  __rtentry2.o(.ARM.Collect$$rtentry$$00000002)
    __rt_entry_sh                            0x00000337   Thumb Code     0  __rtentry4.o(.ARM.Collect$$rtentry$$00000004)
    __rt_entry_li                            0x0000033d   Thumb Code     0  __rtentry2.o(.ARM.Collect$$rtentry$$0000000A)
    __rt_entry_postsh_1                      0x0000033d   Thumb Code     0  __rtentry2.o(.ARM.Collect$$rtentry$$00000009)
    __rt_entry_main                          0x00000341   Thumb Code     0  __rtentry2.o(.ARM.Collect$$rtentry$$0000000D)
    __rt_entry_postli_1                      0x00000341   Thumb Code     0  __rtentry2.o(.ARM.Collect$$rtentry$$0000000C)
    __rt_exit                                0x00000349   Thumb Code     0  rtexit.o(.ARM.Collect$$rtexit$$00000000)
    __rt_exit_ls                             0x0000034b   Thumb Code     0  rtexit2.o(.ARM.Collect$$rtexit$$00000003)
    __rt_exit_prels_1                        0x0000034b   Thumb Code     0  rtexit2.o(.ARM.Collect$$rtexit$$00000002)
    __rt_exit_exit                           0x0000034f   Thumb Code     0  rtexit2.o(.ARM.Collect$$rtexit$$00000004)
    SysCtlDelay                              0x00000355   Thumb Code     6  sysctl.o(.emb_text)
    CPUcpsid                                 0x0000035d   Thumb Code     8  cpu.o(.emb_text)
    CPUprimask                               0x00000365   Thumb Code     6  cpu.o(.emb_text)
    CPUcpsie                                 0x0000036b   Thumb Code     8  cpu.o(.emb_text)
    CPUwfi                                   0x00000373   Thumb Code     4  cpu.o(.emb_text)
    CPUbasepriSet                            0x00000377   Thumb Code     6  cpu.o(.emb_text)
    CPUbasepriGet                            0x0000037d   Thumb Code     6  cpu.o(.emb_text)
    __user_initial_stackheap                 0x00000385   Thumb Code     0  startup_rvmdk.o(.text)
    __I$use$semihosting                      0x0000039d   Thumb Code     0  use_no_semi.o(.text)
    __use_no_semihosting_swi                 0x0000039d   Thumb Code     2  use_no_semi.o(.text)
    toupper                                  0x0000039f   Thumb Code    30  toupper.o(.text)
    __2printf                                0x000003bd   Thumb Code    20  noretval__2printf.o(.text)
    _printf_pre_padding                      0x000003d5   Thumb Code    44  _printf_pad.o(.text)
    _printf_post_padding                     0x00000401   Thumb Code    34  _printf_pad.o(.text)
    _printf_str                              0x00000423   Thumb Code    82  _printf_str.o(.text)
    _printf_int_dec                          0x00000475   Thumb Code   104  _printf_dec.o(.text)
    _printf_int_hex                          0x000004ed   Thumb Code    84  _printf_hex_int.o(.text)
    _printf_longlong_hex                     0x000004ed   Thumb Code     0  _printf_hex_int.o(.text)
    __printf                                 0x00000545   Thumb Code   308  __printf_flags_wp.o(.text)
    getc                                     0x0000067d   Thumb Code     4  getc.o(.text)
    puts                                     0x00000681   Thumb Code    40  puts.o(.text)
    __use_two_region_memory                  0x000006ad   Thumb Code     2  heapauxi.o(.text)
    __rt_heap_escrow$2region                 0x000006af   Thumb Code     2  heapauxi.o(.text)
    __rt_heap_expand$2region                 0x000006b1   Thumb Code     2  heapauxi.o(.text)
    __rt_ctype_table                         0x000006b5   Thumb Code    16  rt_ctype_table.o(.text)
    _printf_int_common                       0x000006c5   Thumb Code   178  _printf_intcommon.o(.text)
    _printf_cs_common                        0x00000777   Thumb Code    20  _printf_char.o(.text)
    _printf_char                             0x0000078b   Thumb Code    16  _printf_char.o(.text)
    _printf_string                           0x0000079b   Thumb Code     8  _printf_char.o(.text)
    _printf_char_file                        0x000007a5   Thumb Code    32  _printf_char_file.o(.text)
    __rt_locale                              0x000007c9   Thumb Code     8  rt_locale_intlibspace.o(.text)
    _printf_char_common                      0x000007db   Thumb Code    32  _printf_char_common.o(.text)
    __user_libspace                          0x00000801   Thumb Code     8  libspace.o(.text)
    __user_perproc_libspace                  0x00000801   Thumb Code     0  libspace.o(.text)
    __user_perthread_libspace                0x00000801   Thumb Code     0  libspace.o(.text)
    __user_setup_stackheap                   0x00000809   Thumb Code    74  sys_stackheap_outer.o(.text)
    exit                                     0x00000853   Thumb Code    18  exit.o(.text)
    strcmp                                   0x00000865   Thumb Code   128  strcmpv7m.o(.text)
    ADC_MultiInit                            0x000008e5   Thumb Code   170  admulti.o(i.ADC_MultiInit)
    ADC_MultiRead                            0x000009ad   Thumb Code    46  admulti.o(i.ADC_MultiRead)
    CPUgetPRIMASK_cpsid                      0x000009e5   Thumb Code     8  es_port.o(i.CPUgetPRIMASK_cpsid)
    CPUsetPRIMASK                            0x000009ed   Thumb Code     6  es_port.o(i.CPUsetPRIMASK)
    Check4CenterOnBlackLine                  0x000009f5   Thumb Code    84  linesensorshw.o(i.Check4CenterOnBlackLine)
    Check4GameOver                           0x00000a4d   Thumb Code    28  gametimersm.o(i.Check4GameOver)
    Check4Keystroke                          0x00000a69   Thumb Code    40  eventcheckers.o(i.Check4Keystroke)
    Check4LineAligned                        0x00000a95   Thumb Code    56  linesensorshw.o(i.Check4LineAligned)
    Check4SwitchChange                       0x00000ad1   Thumb Code   102  periodiceventcheckerservice.o(i.Check4SwitchChange)
    CityIntHandler                           0x00000b3d   Thumb Code    88  citysensorhw.o(i.CityIntHandler)
    CityTOIntHandler                         0x00000ba1   Thumb Code    16  citysensorhw.o(i.CityTOIntHandler)
    ClearFindCityCounter                     0x00000bbd   Thumb Code     8  citysensorhw.o(i.ClearFindCityCounter)
    ClearLineSensorReadings                  0x00000bc9   Thumb Code    12  linesensorshw.o(i.ClearLineSensorReadings)
    ControllerInterruptResponse              0x00000bd9   Thumb Code   146  project_motorservice.o(i.ControllerInterruptResponse)
    DisableCitySensorInts                    0x00000d31   Thumb Code    32  citysensorhw.o(i.DisableCitySensorInts)
    DisableIRInts                            0x00000d5d   Thumb Code    30  irsensorhw.o(i.DisableIRInts)
    DisableLineFollowInts                    0x00000d7d   Thumb Code    12  project_motorservice.o(i.DisableLineFollowInts)
    ES_CheckUserEvents                       0x00000f4d   Thumb Code    34  es_checkevents.o(i.ES_CheckUserEvents)
    ES_DeQueue                               0x00000f75   Thumb Code    80  es_queue.o(i.ES_DeQueue)
    ES_EnQueueFIFO                           0x00000fc9   Thumb Code    66  es_queue.o(i.ES_EnQueueFIFO)
    ES_GetMSBitSet                           0x00001011   Thumb Code    48  es_lookuptables.o(i.ES_GetMSBitSet)
    ES_InitQueue                             0x00001045   Thumb Code    16  es_queue.o(i.ES_InitQueue)
    ES_Initialize                            0x00001055   Thumb Code    72  es_framework.o(i.ES_Initialize)
    ES_PostList01                            0x000010a1   Thumb Code    10  es_postlist.o(i.ES_PostList01)
    ES_PostList02                            0x000010b1   Thumb Code    10  es_postlist.o(i.ES_PostList02)
    ES_PostToService                         0x000010c1   Thumb Code    42  es_framework.o(i.ES_PostToService)
    ES_Run                                   0x000010f9   Thumb Code    84  es_framework.o(i.ES_Run)
    ES_Timer_GetTime                         0x00001159   Thumb Code     4  es_timers.o(i.ES_Timer_GetTime)
    ES_Timer_Init                            0x0000115d   Thumb Code     4  es_timers.o(i.ES_Timer_Init)
    ES_Timer_InitTimer                       0x00001161   Thumb Code    44  es_timers.o(i.ES_Timer_InitTimer)
    ES_Timer_StopTimer                       0x0000119d   Thumb Code    28  es_timers.o(i.ES_Timer_StopTimer)
    ES_Timer_Tick_Resp                       0x000011c1   Thumb Code    90  es_timers.o(i.ES_Timer_Tick_Resp)
    EnableCitySensorInts                     0x0000122d   Thumb Code    20  citysensorhw.o(i.EnableCitySensorInts)
    EnableIRInts                             0x00001245   Thumb Code    30  irsensorhw.o(i.EnableIRInts)
    EnableLineFollowInts                     0x00001265   Thumb Code    12  project_motorservice.o(i.EnableLineFollowInts)
    GPIODirModeSet                           0x00001275   Thumb Code    40  gpio.o(i.GPIODirModeSet)
    GPIOPadConfigSet                         0x0000129d   Thumb Code   312  gpio.o(i.GPIOPadConfigSet)
    GPIOPinConfigure                         0x000013d5   Thumb Code    60  gpio.o(i.GPIOPinConfigure)
    GPIOPinTypeGPIOInput                     0x00001419   Thumb Code    28  gpio.o(i.GPIOPinTypeGPIOInput)
    GPIOPinTypeUART                          0x00001435   Thumb Code    28  gpio.o(i.GPIOPinTypeUART)
    GetBallCount                             0x00001451   Thumb Code     6  atcityshootsm.o(i.GetBallCount)
    GetCityPeriodUS                          0x0000145d   Thumb Code    14  citysensorhw.o(i.GetCityPeriodUS)
    GetCityShootStatus                       0x00001471   Thumb Code     6  atcityshootsm.o(i.GetCityShootStatus)
    GetLineReading                           0x0000147d   Thumb Code     8  linesensorshw.o(i.GetLineReading)
    GetPACMsg                                0x00001489   Thumb Code     6  paccommsm.o(i.GetPACMsg)
    GetRPM0                                  0x00001495   Thumb Code    24  project_motorservice.o(i.GetRPM0)
    GetRPM1                                  0x000014b5   Thumb Code    24  project_motorservice.o(i.GetRPM1)
    GetTeamColor                             0x000014d5   Thumb Code     6  botsm_1.o(i.GetTeamColor)
    GetTimeLeft                              0x000014e1   Thumb Code    48  gametimersm.o(i.GetTimeLeft)
    HardwareInit                             0x00001515   Thumb Code    42  mastersm.o(i.HardwareInit)
    IRIntHandler                             0x00001541   Thumb Code    90  irsensorhw.o(i.IRIntHandler)
    IRTOIntHandler                           0x000015a9   Thumb Code    16  irsensorhw.o(i.IRTOIntHandler)
    InitCAMMotorHW                           0x000015c5   Thumb Code    54  cammotorhw.o(i.InitCAMMotorHW)
    InitCitySensorHW                         0x00001611   Thumb Code   184  citysensorhw.o(i.InitCitySensorHW)
    InitControllerInterrupt                  0x000016e1   Thumb Code   110  project_motorservice.o(i.InitControllerInterrupt)
    InitEncoderInterrupt                     0x00001761   Thumb Code   292  project_motorservice.o(i.InitEncoderInterrupt)
    InitEventPrinter                         0x0000189d   Thumb Code     8  eventprinter.o(i.InitEventPrinter)
    InitIRSensorHW                           0x000018a9   Thumb Code   186  irsensorhw.o(i.InitIRSensorHW)
    InitLEDsHW                               0x0000197d   Thumb Code    54  ledshw.o(i.InitLEDsHW)
    InitLineSensorsHW                        0x000019c9   Thumb Code    72  linesensorshw.o(i.InitLineSensorsHW)
    InitMapKeys                              0x00001a15   Thumb Code     8  mapkeys.o(i.InitMapKeys)
    InitMasterSM                             0x00001a21   Thumb Code    22  mastersm.o(i.InitMasterSM)
    InitMotorService                         0x00001a3d   Thumb Code    88  project_motorservice.o(i.InitMotorService)
    InitPeriodicEventCheckerService          0x00001abd   Thumb Code    54  periodiceventcheckerservice.o(i.InitPeriodicEventCheckerService)
    InitSSIHW                                0x00001af9   Thumb Code   210  ssihw.o(i.InitSSIHW)
    InitSwitchesHW                           0x00001c05   Thumb Code   116  switcheshw.o(i.InitSwitchesHW)
    InitTeamColorSwitchHW                    0x00001c91   Thumb Code    64  teamcolorswitchhw.o(i.InitTeamColorSwitchHW)
    InputCaptureResponse0                    0x00001ce1   Thumb Code    42  project_motorservice.o(i.InputCaptureResponse0)
    InputCaptureResponse1                    0x00001d19   Thumb Code    38  project_motorservice.o(i.InputCaptureResponse1)
    IntMasterEnable                          0x00001d4d   Thumb Code    14  interrupt.o(i.IntMasterEnable)
    OnLineMotorSpeedsInterrupt               0x00001d5d   Thumb Code   140  project_motorservice.o(i.OnLineMotorSpeedsInterrupt)
    PWMInit                                  0x00001e05   Thumb Code   146  project_pwmlab.o(i.PWMInit)
    PortFunctionInit                         0x00001eb5   Thumb Code   132  enablepa25_pb23_pd7_pf0.o(i.PortFunctionInit)
    PostEventPrinter                         0x00001f55   Thumb Code    20  eventprinter.o(i.PostEventPrinter)
    PostMapKeys                              0x00001f6d   Thumb Code    10  mapkeys.o(i.PostMapKeys)
    PostMasterSM                             0x00001f7d   Thumb Code    10  mastersm.o(i.PostMasterSM)
    PostMotorService                         0x00001f8d   Thumb Code    10  project_motorservice.o(i.PostMotorService)
    PostPeriodicEventCheckerService          0x00001f9d   Thumb Code    14  periodiceventcheckerservice.o(i.PostPeriodicEventCheckerService)
    PrintRPM                                 0x00001fe1   Thumb Code    40  project_motorservice.o(i.PrintRPM)
    QueryAtCityCommSM                        0x00002011   Thumb Code     6  atcitycommsm.o(i.QueryAtCityCommSM)
    QueryAtCityShootSM                       0x0000201d   Thumb Code     6  atcityshootsm.o(i.QueryAtCityShootSM)
    QueryBotSM                               0x00002029   Thumb Code     6  botsm_1.o(i.QueryBotSM)
    QueryFindingCityNavSM                    0x00002035   Thumb Code     6  findingcitynavsm.o(i.QueryFindingCityNavSM)
    QueryGameTimerSM                         0x00002041   Thumb Code     6  gametimersm.o(i.QueryGameTimerSM)
    QueryPACCommSM                           0x0000204d   Thumb Code     6  paccommsm.o(i.QueryPACCommSM)
    ReadSSI                                  0x00002059   Thumb Code    12  ssihw.o(i.ReadSSI)
    ReadSwitch                               0x0000206d   Thumb Code    66  switcheshw.o(i.ReadSwitch)
    ReadTeamColor                            0x000020b9   Thumb Code    16  teamcolorswitchhw.o(i.ReadTeamColor)
    ReportAllStates                          0x000020cd   Thumb Code   242  mapkeys.o(i.ReportAllStates)
    ResetBallCounter                         0x0000239d   Thumb Code     8  atcityshootsm.o(i.ResetBallCounter)
    RunAtCityCommSM                          0x000023a9   Thumb Code   396  atcitycommsm.o(i.RunAtCityCommSM)
    RunAtCityShootSM                         0x000025cd   Thumb Code   346  atcityshootsm.o(i.RunAtCityShootSM)
    RunBotSM                                 0x00002765   Thumb Code   386  botsm_1.o(i.RunBotSM)
    RunEventPrinter                          0x00002909   Thumb Code   156  eventprinter.o(i.RunEventPrinter)
    RunFindingCityNavSM                      0x00002c65   Thumb Code   338  findingcitynavsm.o(i.RunFindingCityNavSM)
    RunGameTimerSM                           0x00002dc1   Thumb Code   158  gametimersm.o(i.RunGameTimerSM)
    RunMapKeys                               0x00002e69   Thumb Code   190  mapkeys.o(i.RunMapKeys)
    RunMasterSM                              0x00002f3d   Thumb Code    64  mastersm.o(i.RunMasterSM)
    RunMotorService                          0x00002f81   Thumb Code    36  project_motorservice.o(i.RunMotorService)
    RunPACCommSM                             0x00002fa9   Thumb Code   192  paccommsm.o(i.RunPACCommSM)
    RunPeriodicEventCheckerService           0x00003071   Thumb Code    74  periodiceventcheckerservice.o(i.RunPeriodicEventCheckerService)
    SSIHWEOTIntHandler                       0x000030c1   Thumb Code    36  ssihw.o(i.SSIHWEOTIntHandler)
    SetCAMMotorOff                           0x000030e9   Thumb Code    16  cammotorhw.o(i.SetCAMMotorOff)
    SetCAMMotorOn                            0x000030fd   Thumb Code    16  cammotorhw.o(i.SetCAMMotorOn)
    SetLEDOff                                0x00003111   Thumb Code    46  ledshw.o(i.SetLEDOff)
    SetLEDOn                                 0x00003145   Thumb Code    46  ledshw.o(i.SetLEDOn)
    SetMotorDutyCycles                       0x00003179   Thumb Code    52  project_motorservice.o(i.SetMotorDutyCycles)
    SetShouldShootList                       0x000031ad   Thumb Code    40  atcityshootsm.o(i.SetShouldShootList)
    SetTargetBasedOnMyTeam                   0x000031dd   Thumb Code    38  irsensorhw.o(i.SetTargetBasedOnMyTeam)
    StartAtCityCommSM                        0x00003241   Thumb Code    18  atcitycommsm.o(i.StartAtCityCommSM)
    StartAtCityShootSM                       0x00003259   Thumb Code    16  atcityshootsm.o(i.StartAtCityShootSM)
    StartBotSM                               0x0000326d   Thumb Code    18  botsm_1.o(i.StartBotSM)
    StartFindingCityNavSM                    0x00003285   Thumb Code    16  findingcitynavsm.o(i.StartFindingCityNavSM)
    StartGameTimerSM                         0x00003299   Thumb Code    16  gametimersm.o(i.StartGameTimerSM)
    StartMasterSM                            0x000032ad   Thumb Code    10  mastersm.o(i.StartMasterSM)
    StartPACCommSM                           0x000032bd   Thumb Code    16  paccommsm.o(i.StartPACCommSM)
    SysCtlClockSet                           0x000032d1   Thumb Code   270  sysctl.o(i.SysCtlClockSet)
    SysCtlPeripheralEnable                   0x000033f1   Thumb Code    36  sysctl.o(i.SysCtlPeripheralEnable)
    SysTickEnable                            0x00003419   Thumb Code    14  systick.o(i.SysTickEnable)
    SysTickIntEnable                         0x00003427   Thumb Code    14  systick.o(i.SysTickIntEnable)
    SysTickIntHandler                        0x00003435   Thumb Code    16  es_port.o(i.SysTickIntHandler)
    SysTickPeriodSet                         0x00003449   Thumb Code    10  systick.o(i.SysTickPeriodSet)
    TERMIO_GetChar                           0x00003453   Thumb Code     4  termio.o(i.TERMIO_GetChar)
    TERMIO_Init                              0x00003459   Thumb Code    62  termio.o(i.TERMIO_Init)
    TERMIO_PutChar                           0x000034a9   Thumb Code     8  termio.o(i.TERMIO_PutChar)
    TimeoutResponse0                         0x000034b5   Thumb Code    16  project_motorservice.o(i.TimeoutResponse0)
    TimeoutResponse1                         0x000034d1   Thumb Code    16  project_motorservice.o(i.TimeoutResponse1)
    TransmitSSI                              0x000034ed   Thumb Code    22  ssihw.o(i.TransmitSSI)
    UARTCharPut                              0x00003509   Thumb Code    12  uart.o(i.UARTCharPut)
    UARTClockSourceSet                       0x00003515   Thumb Code     6  uart.o(i.UARTClockSourceSet)
    UARTStdioConfig                          0x0000351d   Thumb Code    82  uartstdio.o(i.UARTStdioConfig)
    UARTgetc                                 0x00003579   Thumb Code    20  uartstdio.o(i.UARTgetc)
    UpdateAllLineReadings                    0x00003591   Thumb Code    30  linesensorshw.o(i.UpdateAllLineReadings)
    _HW_GetTickCount                         0x000035b9   Thumb Code     6  es_port.o(i._HW_GetTickCount)
    _HW_Process_Pending_Ints                 0x000035c5   Thumb Code    26  es_port.o(i._HW_Process_Pending_Ints)
    _HW_Timer_Init                           0x000035e5   Thumb Code    22  es_port.o(i._HW_Timer_Init)
    _is_digit                                0x000035fb   Thumb Code    14  __printf_wp.o(i._is_digit)
    _sys_exit                                0x00003609   Thumb Code     2  retarget.o(i._sys_exit)
    ferror                                   0x0000360b   Thumb Code     6  retarget.o(i.ferror)
    fgetc                                    0x00003611   Thumb Code     4  retarget.o(i.fgetc)
    fputc                                    0x00003615   Thumb Code    14  retarget.o(i.fputc)
    kbhit                                    0x00003625   Thumb Code    16  termio.o(i.kbhit)
    main                                     0x00003639   Thumb Code    92  hsmtemplatemain.o(i.main)
    setDuty                                  0x00003781   Thumb Code   148  project_pwmlab.o(i.setDuty)
    _get_lc_ctype                            0x0000381d   Thumb Code    44  lc_ctype_c.o(locale$$code)
    __aeabi_d2f                              0x00003849   Thumb Code     0  d2f.o(x$fpl$d2f)
    _d2f                                     0x00003849   Thumb Code    98  d2f.o(x$fpl$d2f)
    __aeabi_dadd                             0x000038ad   Thumb Code     0  daddsub_clz.o(x$fpl$dadd)
    _dadd                                    0x000038ad   Thumb Code   332  daddsub_clz.o(x$fpl$dadd)
    __aeabi_i2d                              0x000039fd   Thumb Code     0  dflt_clz.o(x$fpl$dflt)
    _dflt                                    0x000039fd   Thumb Code    46  dflt_clz.o(x$fpl$dflt)
    __aeabi_dmul                             0x00003a2d   Thumb Code     0  dmul.o(x$fpl$dmul)
    _dmul                                    0x00003a2d   Thumb Code   332  dmul.o(x$fpl$dmul)
    __fpl_dnaninf                            0x00003b81   Thumb Code   156  dnaninf.o(x$fpl$dnaninf)
    __fpl_dretinf                            0x00003c1d   Thumb Code    12  dretinf.o(x$fpl$dretinf)
    __aeabi_dsub                             0x00003c29   Thumb Code     0  daddsub_clz.o(x$fpl$dsub)
    _dsub                                    0x00003c29   Thumb Code   464  daddsub_clz.o(x$fpl$dsub)
    __aeabi_f2d                              0x00003dfd   Thumb Code     0  f2d.o(x$fpl$f2d)
    _f2d                                     0x00003dfd   Thumb Code    86  f2d.o(x$fpl$f2d)
    __fpl_fnaninf                            0x00003e53   Thumb Code   140  fnaninf.o(x$fpl$fnaninf)
    _fp_init                                 0x00003edf   Thumb Code    10  fpinit.o(x$fpl$fpinit)
    __fplib_config_fpu_vfp                   0x00003ee7   Thumb Code     0  fpinit.o(x$fpl$fpinit)
    __fplib_config_pureend_doubles           0x00003ee7   Thumb Code     0  fpinit.o(x$fpl$fpinit)
    __fpl_fretinf                            0x00003ee9   Thumb Code    10  fretinf.o(x$fpl$fretinf)
    __I$use$fp                               0x00003ef2   Number         0  usenofp.o(x$fpl$usenofp)
    BitNum2SetMask                           0x00003f90   Data          32  es_lookuptables.o(.constdata)
    Nybble2MSBitNum                          0x00003fb0   Data          15  es_lookuptables.o(.constdata)
    Region$$Table$$Base                      0x00004358   Number         0  anon$$obj.o(Region$$Table)
    Region$$Table$$Limit                     0x00004378   Number         0  anon$$obj.o(Region$$Table)
    __ctype                                  0x00004385   Data           0  lc_ctype_c.o(locale$$data)
    findCityCounter                          0x20000004   Data           1  citysensorhw.o(.data)
    lastByte                                 0x20000044   Data           1  ssihw.o(.data)
    Ready                                    0x200000a2   Data           2  es_framework.o(.data)
    _PRIMASK_temp                            0x200000ac   Data           4  es_queue.o(.data)
    __stdout                                 0x200000bc   Data           4  retarget.o(.data)
    __stdin                                  0x200000c0   Data           4  retarget.o(.data)
    __libspace_start                         0x20000154   Data          96  libspace.o(.bss)
    __temporary_stack_top$libspace           0x200001b4   Data           0  libspace.o(.bss)



==============================================================================

Memory Map of the image

  Image Entry point : 0x0000026d

  Load Region LR_IROM1 (Base: 0x00000000, Size: 0x00004554, Max: 0x00040000, ABSOLUTE)

    Execution Region ER_IROM1 (Base: 0x00000000, Size: 0x00004488, Max: 0x00040000, ABSOLUTE)

    Base Addr    Size         Type   Attr      Idx    E Section Name        Object

    0x00000000   0x00000288   Code   RO         1068  * RESET               startup_rvmdk.o
    0x00000288   0x00000008   Code   RO         2709  * !!!main             c_w.l(__main.o)
    0x00000290   0x00000034   Code   RO         2910    !!!scatter          c_w.l(__scatter.o)
    0x000002c4   0x0000001a   Code   RO         2912    !!handler_copy      c_w.l(__scatter_copy.o)
    0x000002de   0x00000002   PAD
    0x000002e0   0x0000001c   Code   RO         2914    !!handler_zi        c_w.l(__scatter_zi.o)
    0x000002fc   0x00000000   Code   RO         2702    .ARM.Collect$$_printf_percent$$00000000  c_w.l(_printf_percent.o)
    0x000002fc   0x00000006   Code   RO         2701    .ARM.Collect$$_printf_percent$$00000009  c_w.l(_printf_d.o)
    0x00000302   0x00000006   Code   RO         2700    .ARM.Collect$$_printf_percent$$0000000C  c_w.l(_printf_x.o)
    0x00000308   0x00000006   Code   RO         2698    .ARM.Collect$$_printf_percent$$00000013  c_w.l(_printf_c.o)
    0x0000030e   0x00000006   Code   RO         2699    .ARM.Collect$$_printf_percent$$00000014  c_w.l(_printf_s.o)
    0x00000314   0x00000004   Code   RO         2738    .ARM.Collect$$_printf_percent$$00000017  c_w.l(_printf_percent_end.o)
    0x00000318   0x00000002   Code   RO         2789    .ARM.Collect$$libinit$$00000000  c_w.l(libinit.o)
    0x0000031a   0x00000004   Code   RO         2790    .ARM.Collect$$libinit$$00000001  c_w.l(libinit2.o)
    0x0000031e   0x00000000   Code   RO         2793    .ARM.Collect$$libinit$$00000004  c_w.l(libinit2.o)
    0x0000031e   0x00000000   Code   RO         2796    .ARM.Collect$$libinit$$0000000A  c_w.l(libinit2.o)
    0x0000031e   0x00000000   Code   RO         2798    .ARM.Collect$$libinit$$0000000C  c_w.l(libinit2.o)
    0x0000031e   0x00000000   Code   RO         2800    .ARM.Collect$$libinit$$0000000E  c_w.l(libinit2.o)
    0x0000031e   0x00000006   Code   RO         2801    .ARM.Collect$$libinit$$0000000F  c_w.l(libinit2.o)
    0x00000324   0x00000000   Code   RO         2803    .ARM.Collect$$libinit$$00000011  c_w.l(libinit2.o)
    0x00000324   0x0000000c   Code   RO         2804    .ARM.Collect$$libinit$$00000012  c_w.l(libinit2.o)
    0x00000330   0x00000000   Code   RO         2805    .ARM.Collect$$libinit$$00000013  c_w.l(libinit2.o)
    0x00000330   0x00000000   Code   RO         2807    .ARM.Collect$$libinit$$00000015  c_w.l(libinit2.o)
    0x00000330   0x00000000   Code   RO         2809    .ARM.Collect$$libinit$$00000017  c_w.l(libinit2.o)
    0x00000330   0x00000000   Code   RO         2811    .ARM.Collect$$libinit$$00000019  c_w.l(libinit2.o)
    0x00000330   0x00000000   Code   RO         2813    .ARM.Collect$$libinit$$0000001B  c_w.l(libinit2.o)
    0x00000330   0x00000000   Code   RO         2815    .ARM.Collect$$libinit$$0000001D  c_w.l(libinit2.o)
    0x00000330   0x00000000   Code   RO         2817    .ARM.Collect$$libinit$$0000001F  c_w.l(libinit2.o)
    0x00000330   0x00000000   Code   RO         2819    .ARM.Collect$$libinit$$00000021  c_w.l(libinit2.o)
    0x00000330   0x00000000   Code   RO         2821    .ARM.Collect$$libinit$$00000023  c_w.l(libinit2.o)
    0x00000330   0x00000000   Code   RO         2823    .ARM.Collect$$libinit$$00000025  c_w.l(libinit2.o)
    0x00000330   0x00000000   Code   RO         2827    .ARM.Collect$$libinit$$0000002C  c_w.l(libinit2.o)
    0x00000330   0x00000000   Code   RO         2829    .ARM.Collect$$libinit$$0000002E  c_w.l(libinit2.o)
    0x00000330   0x00000000   Code   RO         2831    .ARM.Collect$$libinit$$00000030  c_w.l(libinit2.o)
    0x00000330   0x00000000   Code   RO         2833    .ARM.Collect$$libinit$$00000032  c_w.l(libinit2.o)
    0x00000330   0x00000002   Code   RO         2834    .ARM.Collect$$libinit$$00000033  c_w.l(libinit2.o)
    0x00000332   0x00000002   Code   RO         2862    .ARM.Collect$$libshutdown$$00000000  c_w.l(libshutdown.o)
    0x00000334   0x00000000   Code   RO         2871    .ARM.Collect$$libshutdown$$00000002  c_w.l(libshutdown2.o)
    0x00000334   0x00000000   Code   RO         2873    .ARM.Collect$$libshutdown$$00000004  c_w.l(libshutdown2.o)
    0x00000334   0x00000000   Code   RO         2876    .ARM.Collect$$libshutdown$$00000007  c_w.l(libshutdown2.o)
    0x00000334   0x00000000   Code   RO         2879    .ARM.Collect$$libshutdown$$0000000A  c_w.l(libshutdown2.o)
    0x00000334   0x00000000   Code   RO         2881    .ARM.Collect$$libshutdown$$0000000C  c_w.l(libshutdown2.o)
    0x00000334   0x00000000   Code   RO         2884    .ARM.Collect$$libshutdown$$0000000F  c_w.l(libshutdown2.o)
    0x00000334   0x00000002   Code   RO         2885    .ARM.Collect$$libshutdown$$00000010  c_w.l(libshutdown2.o)
    0x00000336   0x00000000   Code   RO         2729    .ARM.Collect$$rtentry$$00000000  c_w.l(__rtentry.o)
    0x00000336   0x00000000   Code   RO         2749    .ARM.Collect$$rtentry$$00000002  c_w.l(__rtentry2.o)
    0x00000336   0x00000006   Code   RO         2761    .ARM.Collect$$rtentry$$00000004  c_w.l(__rtentry4.o)
    0x0000033c   0x00000000   Code   RO         2751    .ARM.Collect$$rtentry$$00000009  c_w.l(__rtentry2.o)
    0x0000033c   0x00000004   Code   RO         2752    .ARM.Collect$$rtentry$$0000000A  c_w.l(__rtentry2.o)
    0x00000340   0x00000000   Code   RO         2754    .ARM.Collect$$rtentry$$0000000C  c_w.l(__rtentry2.o)
    0x00000340   0x00000008   Code   RO         2755    .ARM.Collect$$rtentry$$0000000D  c_w.l(__rtentry2.o)
    0x00000348   0x00000002   Code   RO         2835    .ARM.Collect$$rtexit$$00000000  c_w.l(rtexit.o)
    0x0000034a   0x00000000   Code   RO         2842    .ARM.Collect$$rtexit$$00000002  c_w.l(rtexit2.o)
    0x0000034a   0x00000004   Code   RO         2843    .ARM.Collect$$rtexit$$00000003  c_w.l(rtexit2.o)
    0x0000034e   0x00000006   Code   RO         2844    .ARM.Collect$$rtexit$$00000004  c_w.l(rtexit2.o)
    0x00000354   0x00000006   Code   RO         1929    .emb_text           driverlib.lib(sysctl.o)
    0x0000035a   0x00000002   PAD
    0x0000035c   0x00000026   Code   RO         2629    .emb_text           driverlib.lib(cpu.o)
    0x00000382   0x00000002   PAD
    0x00000384   0x00000018   Code   RO         1069    .text               startup_rvmdk.o
    0x0000039c   0x00000002   Code   RO         2641    .text               c_w.l(use_no_semi.o)
    0x0000039e   0x0000001e   Code   RO         2643    .text               c_w.l(toupper.o)
    0x000003bc   0x00000018   Code   RO         2647    .text               c_w.l(noretval__2printf.o)
    0x000003d4   0x0000004e   Code   RO         2651    .text               c_w.l(_printf_pad.o)
    0x00000422   0x00000052   Code   RO         2653    .text               c_w.l(_printf_str.o)
    0x00000474   0x00000078   Code   RO         2655    .text               c_w.l(_printf_dec.o)
    0x000004ec   0x00000058   Code   RO         2660    .text               c_w.l(_printf_hex_int.o)
    0x00000544   0x00000138   Code   RO         2690    .text               c_w.l(__printf_flags_wp.o)
    0x0000067c   0x00000004   Code   RO         2703    .text               c_w.l(getc.o)
    0x00000680   0x0000002c   Code   RO         2705    .text               c_w.l(puts.o)
    0x000006ac   0x00000006   Code   RO         2707    .text               c_w.l(heapauxi.o)
    0x000006b2   0x00000002   PAD
    0x000006b4   0x00000010   Code   RO         2730    .text               c_w.l(rt_ctype_table.o)
    0x000006c4   0x000000b2   Code   RO         2732    .text               c_w.l(_printf_intcommon.o)
    0x00000776   0x0000002c   Code   RO         2734    .text               c_w.l(_printf_char.o)
    0x000007a2   0x00000002   PAD
    0x000007a4   0x00000024   Code   RO         2736    .text               c_w.l(_printf_char_file.o)
    0x000007c8   0x00000008   Code   RO         2766    .text               c_w.l(rt_locale_intlibspace.o)
    0x000007d0   0x00000030   Code   RO         2768    .text               c_w.l(_printf_char_common.o)
    0x00000800   0x00000008   Code   RO         2773    .text               c_w.l(libspace.o)
    0x00000808   0x0000004a   Code   RO         2776    .text               c_w.l(sys_stackheap_outer.o)
    0x00000852   0x00000012   Code   RO         2780    .text               c_w.l(exit.o)
    0x00000864   0x00000080   Code   RO         2782    .text               c_w.l(strcmpv7m.o)
    0x000008e4   0x000000c8   Code   RO          110    i.ADC_MultiInit     admulti.o
    0x000009ac   0x00000038   Code   RO          111    i.ADC_MultiRead     admulti.o
    0x000009e4   0x00000008   Code   RO         1201    i.CPUgetPRIMASK_cpsid  es_port.o
    0x000009ec   0x00000006   Code   RO         1207    i.CPUsetPRIMASK     es_port.o
    0x000009f2   0x00000002   PAD
    0x000009f4   0x00000058   Code   RO          366    i.Check4CenterOnBlackLine  linesensorshw.o
    0x00000a4c   0x0000001c   Code   RO          578    i.Check4GameOver    gametimersm.o
    0x00000a68   0x0000002c   Code   RO           77    i.Check4Keystroke   eventcheckers.o
    0x00000a94   0x0000003c   Code   RO          368    i.Check4LineAligned  linesensorshw.o
    0x00000ad0   0x0000006c   Code   RO          995    i.Check4SwitchChange  periodiceventcheckerservice.o
    0x00000b3c   0x00000064   Code   RO          146    i.CityIntHandler    citysensorhw.o
    0x00000ba0   0x0000001c   Code   RO          147    i.CityTOIntHandler  citysensorhw.o
    0x00000bbc   0x0000000c   Code   RO          148    i.ClearFindCityCounter  citysensorhw.o
    0x00000bc8   0x00000010   Code   RO          369    i.ClearLineSensorReadings  linesensorshw.o
    0x00000bd8   0x000000a8   Code   RO          849    i.ControllerInterruptResponse  project_motorservice.o
    0x00000c80   0x000000ae   Code   RO          650    i.ConvertToFreqCode  atcitycommsm.o
    0x00000d2e   0x00000002   PAD
    0x00000d30   0x0000002c   Code   RO          149    i.DisableCitySensorInts  citysensorhw.o
    0x00000d5c   0x0000001e   Code   RO          277    i.DisableIRInts     irsensorhw.o
    0x00000d7a   0x00000002   PAD
    0x00000d7c   0x00000010   Code   RO          850    i.DisableLineFollowInts  project_motorservice.o
    0x00000d8c   0x000000ac   Code   RO          651    i.DuringAtCityRequesting  atcitycommsm.o
    0x00000e38   0x000000b4   Code   RO          534    i.DuringBotIdle     botsm_1.o
    0x00000eec   0x00000060   Code   RO          817    i.DuringRotatingOnLine  findingcitynavsm.o
    0x00000f4c   0x00000028   Code   RO         1075    i.ES_CheckUserEvents  es_checkevents.o
    0x00000f74   0x00000054   Code   RO         1254    i.ES_DeQueue        es_queue.o
    0x00000fc8   0x00000048   Code   RO         1255    i.ES_EnQueueFIFO    es_queue.o
    0x00001010   0x00000034   Code   RO         1150    i.ES_GetMSBitSet    es_lookuptables.o
    0x00001044   0x00000010   Code   RO         1257    i.ES_InitQueue      es_queue.o
    0x00001054   0x0000004c   Code   RO         1101    i.ES_Initialize     es_framework.o
    0x000010a0   0x00000010   Code   RO         1224    i.ES_PostList01     es_postlist.o
    0x000010b0   0x00000010   Code   RO         1225    i.ES_PostList02     es_postlist.o
    0x000010c0   0x00000038   Code   RO         1103    i.ES_PostToService  es_framework.o
    0x000010f8   0x00000060   Code   RO         1105    i.ES_Run            es_framework.o
    0x00001158   0x00000004   Code   RO         1296    i.ES_Timer_GetTime  es_timers.o
    0x0000115c   0x00000004   Code   RO         1297    i.ES_Timer_Init     es_timers.o
    0x00001160   0x0000003c   Code   RO         1298    i.ES_Timer_InitTimer  es_timers.o
    0x0000119c   0x00000024   Code   RO         1301    i.ES_Timer_StopTimer  es_timers.o
    0x000011c0   0x0000006c   Code   RO         1302    i.ES_Timer_Tick_Resp  es_timers.o
    0x0000122c   0x00000018   Code   RO          150    i.EnableCitySensorInts  citysensorhw.o
    0x00001244   0x0000001e   Code   RO          278    i.EnableIRInts      irsensorhw.o
    0x00001262   0x00000002   PAD
    0x00001264   0x00000010   Code   RO          851    i.EnableLineFollowInts  project_motorservice.o
    0x00001274   0x00000028   Code   RO         1504    i.GPIODirModeSet    driverlib.lib(gpio.o)
    0x0000129c   0x00000138   Code   RO         1514    i.GPIOPadConfigSet  driverlib.lib(gpio.o)
    0x000013d4   0x00000044   Code   RO         1515    i.GPIOPinConfigure  driverlib.lib(gpio.o)
    0x00001418   0x0000001c   Code   RO         1525    i.GPIOPinTypeGPIOInput  driverlib.lib(gpio.o)
    0x00001434   0x0000001c   Code   RO         1538    i.GPIOPinTypeUART   driverlib.lib(gpio.o)
    0x00001450   0x0000000c   Code   RO          765    i.GetBallCount      atcityshootsm.o
    0x0000145c   0x00000014   Code   RO          152    i.GetCityPeriodUS   citysensorhw.o
    0x00001470   0x0000000c   Code   RO          766    i.GetCityShootStatus  atcityshootsm.o
    0x0000147c   0x0000000c   Code   RO          371    i.GetLineReading    linesensorshw.o
    0x00001488   0x0000000c   Code   RO          617    i.GetPACMsg         paccommsm.o
    0x00001494   0x00000020   Code   RO          852    i.GetRPM0           project_motorservice.o
    0x000014b4   0x00000020   Code   RO          853    i.GetRPM1           project_motorservice.o
    0x000014d4   0x0000000c   Code   RO          535    i.GetTeamColor      botsm_1.o
    0x000014e0   0x00000034   Code   RO          579    i.GetTimeLeft       gametimersm.o
    0x00001514   0x0000002a   Code   RO          429    i.HardwareInit      mastersm.o
    0x0000153e   0x00000002   PAD
    0x00001540   0x00000068   Code   RO          281    i.IRIntHandler      irsensorhw.o
    0x000015a8   0x0000001c   Code   RO          282    i.IRTOIntHandler    irsensorhw.o
    0x000015c4   0x0000004c   Code   RO          688    i.InitCAMMotorHW    cammotorhw.o
    0x00001610   0x000000d0   Code   RO          153    i.InitCitySensorHW  citysensorhw.o
    0x000016e0   0x00000080   Code   RO          854    i.InitControllerInterrupt  project_motorservice.o
    0x00001760   0x0000013c   Code   RO          855    i.InitEncoderInterrupt  project_motorservice.o
    0x0000189c   0x0000000c   Code   RO          242    i.InitEventPrinter  eventprinter.o
    0x000018a8   0x000000d4   Code   RO          283    i.InitIRSensorHW    irsensorhw.o
    0x0000197c   0x0000004c   Code   RO          333    i.InitLEDsHW        ledshw.o
    0x000019c8   0x0000004c   Code   RO          372    i.InitLineSensorsHW  linesensorshw.o
    0x00001a14   0x0000000c   Code   RO          730    i.InitMapKeys       mapkeys.o
    0x00001a20   0x0000001c   Code   RO          430    i.InitMasterSM      mastersm.o
    0x00001a3c   0x00000080   Code   RO          856    i.InitMotorService  project_motorservice.o
    0x00001abc   0x0000003c   Code   RO          997    i.InitPeriodicEventCheckerService  periodiceventcheckerservice.o
    0x00001af8   0x0000010c   Code   RO          480    i.InitSSIHW         ssihw.o
    0x00001c04   0x0000008c   Code   RO          712    i.InitSwitchesHW    switcheshw.o
    0x00001c90   0x00000050   Code   RO          516    i.InitTeamColorSwitchHW  teamcolorswitchhw.o
    0x00001ce0   0x00000038   Code   RO          857    i.InputCaptureResponse0  project_motorservice.o
    0x00001d18   0x00000034   Code   RO          858    i.InputCaptureResponse1  project_motorservice.o
    0x00001d4c   0x0000000e   Code   RO         1817    i.IntMasterEnable   driverlib.lib(interrupt.o)
    0x00001d5a   0x00000002   PAD
    0x00001d5c   0x000000a8   Code   RO          859    i.OnLineMotorSpeedsInterrupt  project_motorservice.o
    0x00001e04   0x000000b0   Code   RO          971    i.PWMInit           project_pwmlab.o
    0x00001eb4   0x000000a0   Code   RO          227    i.PortFunctionInit  enablepa25_pb23_pd7_pf0.o
    0x00001f54   0x00000018   Code   RO          243    i.PostEventPrinter  eventprinter.o
    0x00001f6c   0x00000010   Code   RO          731    i.PostMapKeys       mapkeys.o
    0x00001f7c   0x00000010   Code   RO          431    i.PostMasterSM      mastersm.o
    0x00001f8c   0x00000010   Code   RO          860    i.PostMotorService  project_motorservice.o
    0x00001f9c   0x00000014   Code   RO          998    i.PostPeriodicEventCheckerService  periodiceventcheckerservice.o
    0x00001fb0   0x0000002e   Code   RO         1226    i.PostToList        es_postlist.o
    0x00001fde   0x00000002   PAD
    0x00001fe0   0x00000030   Code   RO          861    i.PrintRPM          project_motorservice.o
    0x00002010   0x0000000c   Code   RO          652    i.QueryAtCityCommSM  atcitycommsm.o
    0x0000201c   0x0000000c   Code   RO          767    i.QueryAtCityShootSM  atcityshootsm.o
    0x00002028   0x0000000c   Code   RO          536    i.QueryBotSM        botsm_1.o
    0x00002034   0x0000000c   Code   RO          818    i.QueryFindingCityNavSM  findingcitynavsm.o
    0x00002040   0x0000000c   Code   RO          580    i.QueryGameTimerSM  gametimersm.o
    0x0000204c   0x0000000c   Code   RO          618    i.QueryPACCommSM    paccommsm.o
    0x00002058   0x00000014   Code   RO          481    i.ReadSSI           ssihw.o
    0x0000206c   0x0000004c   Code   RO          713    i.ReadSwitch        switcheshw.o
    0x000020b8   0x00000014   Code   RO          517    i.ReadTeamColor     teamcolorswitchhw.o
    0x000020cc   0x000002d0   Code   RO          732    i.ReportAllStates   mapkeys.o
    0x0000239c   0x0000000c   Code   RO          768    i.ResetBallCounter  atcityshootsm.o
    0x000023a8   0x00000224   Code   RO          653    i.RunAtCityCommSM   atcitycommsm.o
    0x000025cc   0x00000198   Code   RO          769    i.RunAtCityShootSM  atcityshootsm.o
    0x00002764   0x000001a4   Code   RO          537    i.RunBotSM          botsm_1.o
    0x00002908   0x0000035c   Code   RO          244    i.RunEventPrinter   eventprinter.o
    0x00002c64   0x0000015c   Code   RO          819    i.RunFindingCityNavSM  findingcitynavsm.o
    0x00002dc0   0x000000a8   Code   RO          581    i.RunGameTimerSM    gametimersm.o
    0x00002e68   0x000000d4   Code   RO          733    i.RunMapKeys        mapkeys.o
    0x00002f3c   0x00000044   Code   RO          432    i.RunMasterSM       mastersm.o
    0x00002f80   0x00000028   Code   RO          862    i.RunMotorService   project_motorservice.o
    0x00002fa8   0x000000c8   Code   RO          619    i.RunPACCommSM      paccommsm.o
    0x00003070   0x00000050   Code   RO          999    i.RunPeriodicEventCheckerService  periodiceventcheckerservice.o
    0x000030c0   0x00000028   Code   RO          482    i.SSIHWEOTIntHandler  ssihw.o
    0x000030e8   0x00000014   Code   RO          689    i.SetCAMMotorOff    cammotorhw.o
    0x000030fc   0x00000014   Code   RO          690    i.SetCAMMotorOn     cammotorhw.o
    0x00003110   0x00000034   Code   RO          334    i.SetLEDOff         ledshw.o
    0x00003144   0x00000034   Code   RO          335    i.SetLEDOn          ledshw.o
    0x00003178   0x00000034   Code   RO          863    i.SetMotorDutyCycles  project_motorservice.o
    0x000031ac   0x00000030   Code   RO          770    i.SetShouldShootList  atcityshootsm.o
    0x000031dc   0x00000064   Code   RO          284    i.SetTargetBasedOnMyTeam  irsensorhw.o
    0x00003240   0x00000018   Code   RO          654    i.StartAtCityCommSM  atcitycommsm.o
    0x00003258   0x00000014   Code   RO          771    i.StartAtCityShootSM  atcityshootsm.o
    0x0000326c   0x00000018   Code   RO          538    i.StartBotSM        botsm_1.o
    0x00003284   0x00000014   Code   RO          820    i.StartFindingCityNavSM  findingcitynavsm.o
    0x00003298   0x00000014   Code   RO          582    i.StartGameTimerSM  gametimersm.o
    0x000032ac   0x00000010   Code   RO          433    i.StartMasterSM     mastersm.o
    0x000032bc   0x00000014   Code   RO          620    i.StartPACCommSM    paccommsm.o
    0x000032d0   0x00000120   Code   RO         1934    i.SysCtlClockSet    driverlib.lib(sysctl.o)
    0x000033f0   0x00000028   Code   RO         1963    i.SysCtlPeripheralEnable  driverlib.lib(sysctl.o)
    0x00003418   0x0000000e   Code   RO         2272    i.SysTickEnable     driverlib.lib(systick.o)
    0x00003426   0x0000000e   Code   RO         2274    i.SysTickIntEnable  driverlib.lib(systick.o)
    0x00003434   0x00000014   Code   RO         1167    i.SysTickIntHandler  es_port.o
    0x00003448   0x0000000a   Code   RO         2278    i.SysTickPeriodSet  driverlib.lib(systick.o)
    0x00003452   0x00000004   Code   RO         1401    i.TERMIO_GetChar    termio.o
    0x00003456   0x00000002   PAD
    0x00003458   0x00000050   Code   RO         1402    i.TERMIO_Init       termio.o
    0x000034a8   0x0000000c   Code   RO         1403    i.TERMIO_PutChar    termio.o
    0x000034b4   0x0000001c   Code   RO          865    i.TimeoutResponse0  project_motorservice.o
    0x000034d0   0x0000001c   Code   RO          866    i.TimeoutResponse1  project_motorservice.o
    0x000034ec   0x0000001c   Code   RO          483    i.TransmitSSI       ssihw.o
    0x00003508   0x0000000c   Code   RO         2342    i.UARTCharPut       driverlib.lib(uart.o)
    0x00003514   0x00000006   Code   RO         2346    i.UARTClockSourceSet  driverlib.lib(uart.o)
    0x0000351a   0x00000002   PAD
    0x0000351c   0x0000005c   Code   RO         1444    i.UARTStdioConfig   uartstdio.o
    0x00003578   0x00000018   Code   RO         1445    i.UARTgetc          uartstdio.o
    0x00003590   0x00000028   Code   RO          373    i.UpdateAllLineReadings  linesensorshw.o
    0x000035b8   0x0000000c   Code   RO         1168    i._HW_GetTickCount  es_port.o
    0x000035c4   0x00000020   Code   RO         1169    i._HW_Process_Pending_Ints  es_port.o
    0x000035e4   0x00000016   Code   RO         1170    i._HW_Timer_Init    es_port.o
    0x000035fa   0x0000000e   Code   RO         2688    i._is_digit         c_w.l(__printf_wp.o)
    0x00003608   0x00000002   Code   RO         1348    i._sys_exit         retarget.o
    0x0000360a   0x00000006   Code   RO         1350    i.ferror            retarget.o
    0x00003610   0x00000004   Code   RO         1351    i.fgetc             retarget.o
    0x00003614   0x0000000e   Code   RO         1352    i.fputc             retarget.o
    0x00003622   0x00000002   PAD
    0x00003624   0x00000014   Code   RO         1404    i.kbhit             termio.o
    0x00003638   0x00000148   Code   RO            1    i.main              hsmtemplatemain.o
    0x00003780   0x0000009c   Code   RO          972    i.setDuty           project_pwmlab.o
    0x0000381c   0x0000002c   Code   RO         2771    locale$$code        c_w.l(lc_ctype_c.o)
    0x00003848   0x00000062   Code   RO         2711    x$fpl$d2f           fz_wm.l(d2f.o)
    0x000038aa   0x00000002   PAD
    0x000038ac   0x00000150   Code   RO         2713    x$fpl$dadd          fz_wm.l(daddsub_clz.o)
    0x000039fc   0x0000002e   Code   RO         2720    x$fpl$dflt          fz_wm.l(dflt_clz.o)
    0x00003a2a   0x00000002   PAD
    0x00003a2c   0x00000154   Code   RO         2725    x$fpl$dmul          fz_wm.l(dmul.o)
    0x00003b80   0x0000009c   Code   RO         2739    x$fpl$dnaninf       fz_wm.l(dnaninf.o)
    0x00003c1c   0x0000000c   Code   RO         2741    x$fpl$dretinf       fz_wm.l(dretinf.o)
    0x00003c28   0x000001d4   Code   RO         2715    x$fpl$dsub          fz_wm.l(daddsub_clz.o)
    0x00003dfc   0x00000056   Code   RO         2727    x$fpl$f2d           fz_wm.l(f2d.o)
    0x00003e52   0x0000008c   Code   RO         2743    x$fpl$fnaninf       fz_wm.l(fnaninf.o)
    0x00003ede   0x0000000a   Code   RO         2839    x$fpl$fpinit        fz_wm.l(fpinit.o)
    0x00003ee8   0x0000000a   Code   RO         2745    x$fpl$fretinf       fz_wm.l(fretinf.o)
    0x00003ef2   0x00000000   Code   RO         2747    x$fpl$usenofp       fz_wm.l(usenofp.o)
    0x00003ef2   0x00000002   PAD
    0x00003ef4   0x00000030   Data   RO          112    .constdata          admulti.o
    0x00003f24   0x00000004   Data   RO          539    .constdata          botsm_1.o
    0x00003f28   0x00000004   Data   RO          583    .constdata          gametimersm.o
    0x00003f2c   0x00000004   Data   RO          621    .constdata          paccommsm.o
    0x00003f30   0x00000004   Data   RO          655    .constdata          atcitycommsm.o
    0x00003f34   0x00000004   Data   RO          773    .constdata          atcityshootsm.o
    0x00003f38   0x00000004   Data   RO          821    .constdata          findingcitynavsm.o
    0x00003f3c   0x00000004   Data   RO         1076    .constdata          es_checkevents.o
    0x00003f40   0x00000050   Data   RO         1111    .constdata          es_framework.o
    0x00003f90   0x00000020   Data   RO         1151    .constdata          es_lookuptables.o
    0x00003fb0   0x0000000f   Data   RO         1152    .constdata          es_lookuptables.o
    0x00003fbf   0x00000001   PAD
    0x00003fc0   0x00000018   Data   RO         1227    .constdata          es_postlist.o
    0x00003fd8   0x00000040   Data   RO         1304    .constdata          es_timers.o
    0x00004018   0x0000001c   Data   RO         1450    .constdata          uartstdio.o
    0x00004034   0x00000210   Data   RO         1545    .constdata          driverlib.lib(gpio.o)
    0x00004244   0x00000028   Data   RO         2661    .constdata          c_w.l(_printf_hex_int.o)
    0x0000426c   0x00000011   Data   RO         2691    .constdata          c_w.l(__printf_flags_wp.o)
    0x0000427d   0x00000003   PAD
    0x00004280   0x000000c3   Data   RO          656    .conststring        atcitycommsm.o
    0x00004343   0x00000001   PAD
    0x00004344   0x00000011   Data   RO         1451    .conststring        uartstdio.o
    0x00004355   0x00000003   PAD
    0x00004358   0x00000020   Data   RO         2908    Region$$Table       anon$$obj.o
    0x00004378   0x00000110   Data   RO         2770    locale$$data        c_w.l(lc_ctype_c.o)


    Execution Region RW_IRAM1 (Base: 0x20000000, Size: 0x000009b8, Max: 0x00008000, ABSOLUTE)

    Base Addr    Size         Type   Attr      Idx    E Section Name        Object

    0x20000000   0x00000001   Data   RW          113    .data               admulti.o
    0x20000001   0x00000003   PAD
    0x20000004   0x00000014   Data   RW          154    .data               citysensorhw.o
    0x20000018   0x00000001   Data   RW          245    .data               eventprinter.o
    0x20000019   0x00000003   PAD
    0x2000001c   0x00000018   Data   RW          285    .data               irsensorhw.o
    0x20000034   0x0000000e   Data   RW          375    .data               linesensorshw.o
    0x20000042   0x00000002   Data   RW          435    .data               mastersm.o
    0x20000044   0x00000001   Data   RW          484    .data               ssihw.o
    0x20000045   0x00000003   Data   RW          540    .data               botsm_1.o
    0x20000048   0x00000004   Data   RW          584    .data               gametimersm.o
    0x2000004c   0x00000008   Data   RW          622    .data               paccommsm.o
    0x20000054   0x00000002   Data   RW          657    .data               atcitycommsm.o
    0x20000056   0x00000001   Data   RW          734    .data               mapkeys.o
    0x20000057   0x00000001   PAD
    0x20000058   0x0000001a   Data   RW          774    .data               atcityshootsm.o
    0x20000072   0x00000001   Data   RW          822    .data               findingcitynavsm.o
    0x20000073   0x00000001   PAD
    0x20000074   0x00000024   Data   RW          868    .data               project_motorservice.o
    0x20000098   0x00000009   Data   RW         1000    .data               periodiceventcheckerservice.o
    0x200000a1   0x00000001   PAD
    0x200000a2   0x00000006   Data   RW         1112    .data               es_framework.o
    0x200000a8   0x00000004   Data   RW         1171    .data               es_port.o
    0x200000ac   0x00000004   Data   RW         1259    .data               es_queue.o
    0x200000b0   0x0000000a   Data   RW         1305    .data               es_timers.o
    0x200000ba   0x00000002   PAD
    0x200000bc   0x00000004   Data   RW         1353    .data               retarget.o
    0x200000c0   0x00000004   Data   RW         1354    .data               retarget.o
    0x200000c4   0x00000008   Data   RW         1452    .data               uartstdio.o
    0x200000cc   0x00000010   Zero   RW          374    .bss                linesensorshw.o
    0x200000dc   0x0000000a   Zero   RW          772    .bss                atcityshootsm.o
    0x200000e6   0x0000000c   Zero   RW         1106    .bss                es_framework.o
    0x200000f2   0x00000010   Zero   RW         1107    .bss                es_framework.o
    0x20000102   0x00000010   Zero   RW         1108    .bss                es_framework.o
    0x20000112   0x00000010   Zero   RW         1109    .bss                es_framework.o
    0x20000122   0x00000010   Zero   RW         1110    .bss                es_framework.o
    0x20000132   0x00000020   Zero   RW         1303    .bss                es_timers.o
    0x20000152   0x00000002   PAD
    0x20000154   0x00000060   Zero   RW         2774    .bss                c_w.l(libspace.o)
    0x200001b4   0x00000004   PAD
    0x200001b8   0x00000000   Zero   RW         1067    HEAP                startup_rvmdk.o
    0x200001b8   0x00000800   Zero   RW         1066    STACK               startup_rvmdk.o


==============================================================================

Image component sizes


      Code (inc. data)   RO Data    RW Data    ZI Data      Debug   Object Name

       256         40         48          1          0       2124   admulti.o
       930        238        199          2          0       5938   atcitycommsm.o
       524        102          4         26         10       6349   atcityshootsm.o
       648         96          4          3          0       5824   botsm_1.o
       116         30          0          0          0       1514   cammotorhw.o
       436         74          0         20          0       5277   citysensorhw.o
       160         28          0          0          0        631   enablepa25_pb23_pd7_pf0.o
        40          6          4          0          0       1329   es_checkevents.o
       228         30         80          6         76       3312   es_framework.o
        52          4         47          0          0       1526   es_lookuptables.o
       100         16          0          4          0       4437   es_port.o
        78         12         24          0          0       2652   es_postlist.o
       172         10          0          4          0       2953   es_queue.o
       212         42         64         10         32       3830   es_timers.o
        44          4          0          0          0       1558   eventcheckers.o
       896        744          0          1          0       2928   eventprinter.o
       476         26          4          1          0       4022   findingcitynavsm.o
       280         24          4          4          0       4322   gametimersm.o
       328        236          0          0          0      10635   hsmtemplatemain.o
       504        114          0         24          0       4953   irsensorhw.o
       180         34          0          0          0       1996   ledshw.o
       292         30          0         14         16       6205   linesensorshw.o
       960        516          0          1          0       2735   mapkeys.o
       170         22          0          2          0       4819   mastersm.o
       244         24          4          8          0       3721   paccommsm.o
       268         24          0          9          0       4050   periodiceventcheckerservice.o
      1324        226          0         36          0      12491   project_motorservice.o
       332         38          0          0          0       2008   project_pwmlab.o
        26          0          0          8          0       4015   retarget.o
       356         76          0          1          0       3360   ssihw.o
       672        636          0          0       2048        636   startup_rvmdk.o
       216         42          0          0          0       1382   switcheshw.o
       100         20          0          0          0       1116   teamcolorswitchhw.o
       116         26          0          0          0       2148   termio.o
       116         14         45          8          0       3136   uartstdio.o

    ----------------------------------------------------------------------
     11868       3604        568        204       2184     129932   Object Totals
         0          0         32          0          0          0   (incl. Generated)
        16          0          5         11          2          0   (incl. Padding)

    ----------------------------------------------------------------------

      Code (inc. data)   RO Data    RW Data    ZI Data      Debug   Library Member Name

         8          0          0          0          0         68   __main.o
       312          4         17          0          0         92   __printf_flags_wp.o
        14          0          0          0          0         68   __printf_wp.o
         0          0          0          0          0          0   __rtentry.o
        12          0          0          0          0          0   __rtentry2.o
         6          0          0          0          0          0   __rtentry4.o
        52          8          0          0          0          0   __scatter.o
        26          0          0          0          0          0   __scatter_copy.o
        28          0          0          0          0          0   __scatter_zi.o
         6          0          0          0          0          0   _printf_c.o
        44          0          0          0          0        108   _printf_char.o
        48          6          0          0          0         96   _printf_char_common.o
        36          4          0          0          0         80   _printf_char_file.o
         6          0          0          0          0          0   _printf_d.o
       120         16          0          0          0         92   _printf_dec.o
        88          4         40          0          0         88   _printf_hex_int.o
       178          0          0          0          0         88   _printf_intcommon.o
        78          0          0          0          0        108   _printf_pad.o
         0          0          0          0          0          0   _printf_percent.o
         4          0          0          0          0          0   _printf_percent_end.o
         6          0          0          0          0          0   _printf_s.o
        82          0          0          0          0         80   _printf_str.o
         6          0          0          0          0          0   _printf_x.o
        18          0          0          0          0         80   exit.o
         4          0          0          0          0         68   getc.o
         6          0          0          0          0        152   heapauxi.o
        44         10        272          0          0         76   lc_ctype_c.o
         2          0          0          0          0          0   libinit.o
        24          0          0          0          0          0   libinit2.o
         2          0          0          0          0          0   libshutdown.o
         2          0          0          0          0          0   libshutdown2.o
         8          4          0          0         96         68   libspace.o
        24          4          0          0          0         84   noretval__2printf.o
        44          4          0          0          0         84   puts.o
        16          4          0          0          0         76   rt_ctype_table.o
         8          4          0          0          0         68   rt_locale_intlibspace.o
         2          0          0          0          0          0   rtexit.o
        10          0          0          0          0          0   rtexit2.o
       128          0          0          0          0         68   strcmpv7m.o
        74          0          0          0          0         80   sys_stackheap_outer.o
        30          0          0          0          0         76   toupper.o
         2          0          0          0          0         68   use_no_semi.o
        38          0          0          0          0        572   cpu.o
       476          8        528          0          0       7164   gpio.o
        14          0          0          0          0        518   interrupt.o
       334         22          0          0          0       1742   sysctl.o
        38          0          0          0          0       1410   systick.o
        18          0          0          0          0        999   uart.o
        98          4          0          0          0        140   d2f.o
       804         16          0          0          0        368   daddsub_clz.o
        46          0          0          0          0        116   dflt_clz.o
       340         12          0          0          0        152   dmul.o
       156          4          0          0          0        140   dnaninf.o
        12          0          0          0          0        116   dretinf.o
        86          4          0          0          0        132   f2d.o
       140          4          0          0          0        132   fnaninf.o
        10          0          0          0          0        116   fpinit.o
        10          0          0          0          0        116   fretinf.o
         0          0          0          0          0          0   usenofp.o

    ----------------------------------------------------------------------
      4248        146        860          0        100      15949   Library Totals
        20          0          3          0          4          0   (incl. Padding)

    ----------------------------------------------------------------------

      Code (inc. data)   RO Data    RW Data    ZI Data      Debug   Library Name

      1608         72        329          0         96       2016   c_w.l
       918         30        528          0          0      12405   driverlib.lib
      1702         44          0          0          0       1528   fz_wm.l

    ----------------------------------------------------------------------
      4248        146        860          0        100      15949   Library Totals

    ----------------------------------------------------------------------

==============================================================================


      Code (inc. data)   RO Data    RW Data    ZI Data      Debug   

     16116       3750       1428        204       2284     129541   Grand Totals
     16116       3750       1428        204       2284     129541   ELF Image Totals
     16116       3750       1428        204          0          0   ROM Totals

==============================================================================

    Total RO  Size (Code + RO Data)                17544 (  17.13kB)
    Total RW  Size (RW Data + ZI Data)              2488 (   2.43kB)
    Total ROM Size (Code + RO Data + RW Data)      17748 (  17.33kB)

==============================================================================

